	.build_version macos, 26, 0	sdk_version 26, 2
	.file	0 "/Users/kazukishinohara/ghqrepo/github.com/hypatia-tile/single-c" "src/doubly_linked_list.c" md5 0xdaa86e74958ea1344207260470f15877
	.section	__TEXT,__text,regular,pure_instructions
	.globl	_create_node                    ; -- Begin function create_node
	.p2align	2
_create_node:                           ; @create_node
Lfunc_begin0:
	.loc	0 25 0                          ; src/doubly_linked_list.c:25:0
	.cfi_startproc
; %bb.0:
	sub	sp, sp, #64
	stp	x29, x30, [sp, #48]             ; 16-byte Folded Spill
	add	x29, sp, #48
	.cfi_def_cfa w29, 16
	.cfi_offset w30, -8
	.cfi_offset w29, -16
	stur	x0, [x29, #-8]
	stur	x1, [x29, #-16]
	str	x2, [sp, #24]
Ltmp0:
	.loc	0 26 16 prologue_end            ; src/doubly_linked_list.c:26:16
	mov	x0, #24                         ; =0x18
	bl	_malloc
	.loc	0 26 9 is_stmt 0                ; src/doubly_linked_list.c:26:9
	str	x0, [sp, #16]
	.loc	0 27 35 is_stmt 1               ; src/doubly_linked_list.c:27:35
	ldur	x0, [x29, #-8]
	.loc	0 27 28 is_stmt 0               ; src/doubly_linked_list.c:27:28
	bl	_strlen
	.loc	0 27 17                         ; src/doubly_linked_list.c:27:17
	str	x0, [sp, #8]
	.loc	0 28 39 is_stmt 1               ; src/doubly_linked_list.c:28:39
	ldr	x9, [sp, #8]
	mov	x8, #1                          ; =0x1
	.loc	0 28 48 is_stmt 0               ; src/doubly_linked_list.c:28:48
	add	x9, x9, #1
	.loc	0 28 36                         ; src/doubly_linked_list.c:28:36
	mul	x0, x8, x9
	.loc	0 28 16                         ; src/doubly_linked_list.c:28:16
	bl	_malloc
	.loc	0 28 3                          ; src/doubly_linked_list.c:28:3
	ldr	x8, [sp, #16]
	.loc	0 28 14                         ; src/doubly_linked_list.c:28:14
	str	x0, [x8]
	.loc	0 29 3 is_stmt 1                ; src/doubly_linked_list.c:29:3
	ldr	x8, [sp, #16]
	ldr	x0, [x8]
	ldur	x1, [x29, #-8]
	ldr	x2, [sp, #8]
	mov	x3, #-1                         ; =0xffffffffffffffff
	bl	___strncpy_chk
	.loc	0 30 3                          ; src/doubly_linked_list.c:30:3
	ldr	x8, [sp, #16]
	.loc	0 30 9 is_stmt 0                ; src/doubly_linked_list.c:30:9
	ldr	x8, [x8]
	.loc	0 30 14                         ; src/doubly_linked_list.c:30:14
	ldr	x9, [sp, #8]
	.loc	0 30 3                          ; src/doubly_linked_list.c:30:3
	add	x8, x8, x9
	.loc	0 30 24                         ; src/doubly_linked_list.c:30:24
	strb	wzr, [x8]
	.loc	0 31 16 is_stmt 1               ; src/doubly_linked_list.c:31:16
	ldur	x8, [x29, #-16]
	.loc	0 31 3 is_stmt 0                ; src/doubly_linked_list.c:31:3
	ldr	x9, [sp, #16]
	.loc	0 31 14                         ; src/doubly_linked_list.c:31:14
	str	x8, [x9, #8]
	.loc	0 32 16 is_stmt 1               ; src/doubly_linked_list.c:32:16
	ldr	x8, [sp, #24]
	.loc	0 32 3 is_stmt 0                ; src/doubly_linked_list.c:32:3
	ldr	x9, [sp, #16]
	.loc	0 32 14                         ; src/doubly_linked_list.c:32:14
	str	x8, [x9, #16]
	.loc	0 33 10 is_stmt 1               ; src/doubly_linked_list.c:33:10
	ldr	x0, [sp, #16]
	.loc	0 33 3 epilogue_begin is_stmt 0 ; src/doubly_linked_list.c:33:3
	ldp	x29, x30, [sp, #48]             ; 16-byte Folded Reload
	add	sp, sp, #64
	ret
Ltmp1:
Lfunc_end0:
	.cfi_endproc
                                        ; -- End function
	.globl	_free_node                      ; -- Begin function free_node
	.p2align	2
_free_node:                             ; @free_node
Lfunc_begin1:
	.loc	0 36 0 is_stmt 1                ; src/doubly_linked_list.c:36:0
	.cfi_startproc
; %bb.0:
	sub	sp, sp, #32
	stp	x29, x30, [sp, #16]             ; 16-byte Folded Spill
	add	x29, sp, #16
	.cfi_def_cfa w29, 16
	.cfi_offset w30, -8
	.cfi_offset w29, -16
	str	x0, [sp, #8]
Ltmp2:
	.loc	0 37 8 prologue_end             ; src/doubly_linked_list.c:37:8
	ldr	x8, [sp, #8]
	.loc	0 37 14 is_stmt 0               ; src/doubly_linked_list.c:37:14
	ldr	x0, [x8]
	.loc	0 37 3                          ; src/doubly_linked_list.c:37:3
	bl	_free
	.loc	0 38 8 is_stmt 1                ; src/doubly_linked_list.c:38:8
	ldr	x0, [sp, #8]
	.loc	0 38 3 is_stmt 0                ; src/doubly_linked_list.c:38:3
	bl	_free
	.loc	0 39 1 epilogue_begin is_stmt 1 ; src/doubly_linked_list.c:39:1
	ldp	x29, x30, [sp, #16]             ; 16-byte Folded Reload
	add	sp, sp, #32
	ret
Ltmp3:
Lfunc_end1:
	.cfi_endproc
                                        ; -- End function
	.globl	_print_node                     ; -- Begin function print_node
	.p2align	2
_print_node:                            ; @print_node
Lfunc_begin2:
	.loc	0 41 0                          ; src/doubly_linked_list.c:41:0
	.cfi_startproc
; %bb.0:
	sub	sp, sp, #64
	stp	x29, x30, [sp, #48]             ; 16-byte Folded Spill
	add	x29, sp, #48
	.cfi_def_cfa w29, 16
	.cfi_offset w30, -8
	.cfi_offset w29, -16
	stur	x0, [x29, #-8]
Ltmp4:
	.loc	0 42 26 prologue_end            ; src/doubly_linked_list.c:42:26
	ldur	x8, [x29, #-8]
	.loc	0 42 32 is_stmt 0               ; src/doubly_linked_list.c:42:32
	ldr	x8, [x8]
	.loc	0 42 3                          ; src/doubly_linked_list.c:42:3
	mov	x9, sp
	str	x8, [x9]
	adrp	x0, l_.str@PAGE
	add	x0, x0, l_.str@PAGEOFF
	bl	_printf
	.loc	0 43 24 is_stmt 1               ; src/doubly_linked_list.c:43:24
	ldur	x8, [x29, #-8]
	.loc	0 43 30 is_stmt 0               ; src/doubly_linked_list.c:43:30
	ldr	x8, [x8, #8]
	.loc	0 43 24                         ; src/doubly_linked_list.c:43:24
	cbz	x8, LBB2_2
	b	LBB2_1
LBB2_1:
	.loc	0 43 37                         ; src/doubly_linked_list.c:43:37
	ldur	x8, [x29, #-8]
	.loc	0 43 43                         ; src/doubly_linked_list.c:43:43
	ldr	x8, [x8, #8]
	.loc	0 43 49                         ; src/doubly_linked_list.c:43:49
	ldr	x8, [x8]
	stur	x8, [x29, #-16]                 ; 8-byte Folded Spill
	.loc	0 43 24                         ; src/doubly_linked_list.c:43:24
	b	LBB2_3
LBB2_2:
	.loc	0 0 24                          ; src/doubly_linked_list.c:0:24
	adrp	x8, l_.str.2@PAGE
	add	x8, x8, l_.str.2@PAGEOFF
	stur	x8, [x29, #-16]                 ; 8-byte Folded Spill
	.loc	0 43 24                         ; src/doubly_linked_list.c:43:24
	b	LBB2_3
LBB2_3:
	.loc	0 0 24                          ; src/doubly_linked_list.c:0:24
	ldur	x8, [x29, #-16]                 ; 8-byte Folded Reload
	.loc	0 43 3                          ; src/doubly_linked_list.c:43:3
	mov	x9, sp
	str	x8, [x9]
	adrp	x0, l_.str.1@PAGE
	add	x0, x0, l_.str.1@PAGEOFF
	bl	_printf
	.loc	0 44 26 is_stmt 1               ; src/doubly_linked_list.c:44:26
	ldur	x8, [x29, #-8]
	.loc	0 44 32 is_stmt 0               ; src/doubly_linked_list.c:44:32
	ldr	x8, [x8, #16]
	.loc	0 44 26                         ; src/doubly_linked_list.c:44:26
	cbz	x8, LBB2_5
	b	LBB2_4
LBB2_4:
	.loc	0 44 39                         ; src/doubly_linked_list.c:44:39
	ldur	x8, [x29, #-8]
	.loc	0 44 45                         ; src/doubly_linked_list.c:44:45
	ldr	x8, [x8, #16]
	.loc	0 44 51                         ; src/doubly_linked_list.c:44:51
	ldr	x8, [x8]
	str	x8, [sp, #24]                   ; 8-byte Folded Spill
	.loc	0 44 26                         ; src/doubly_linked_list.c:44:26
	b	LBB2_6
LBB2_5:
	.loc	0 0 26                          ; src/doubly_linked_list.c:0:26
	adrp	x8, l_.str.2@PAGE
	add	x8, x8, l_.str.2@PAGEOFF
	str	x8, [sp, #24]                   ; 8-byte Folded Spill
	.loc	0 44 26                         ; src/doubly_linked_list.c:44:26
	b	LBB2_6
LBB2_6:
	.loc	0 0 26                          ; src/doubly_linked_list.c:0:26
	ldr	x8, [sp, #24]                   ; 8-byte Folded Reload
	.loc	0 44 3                          ; src/doubly_linked_list.c:44:3
	mov	x9, sp
	str	x8, [x9]
	adrp	x0, l_.str.3@PAGE
	add	x0, x0, l_.str.3@PAGEOFF
	bl	_printf
	.loc	0 45 36 is_stmt 1               ; src/doubly_linked_list.c:45:36
	ldur	x11, [x29, #-8]
	.loc	0 45 50 is_stmt 0               ; src/doubly_linked_list.c:45:50
	ldur	x8, [x29, #-8]
	.loc	0 45 56                         ; src/doubly_linked_list.c:45:56
	ldr	x10, [x8, #8]
	.loc	0 46 18 is_stmt 1               ; src/doubly_linked_list.c:46:18
	ldur	x8, [x29, #-8]
	.loc	0 46 24 is_stmt 0               ; src/doubly_linked_list.c:46:24
	ldr	x8, [x8, #16]
	.loc	0 45 3 is_stmt 1                ; src/doubly_linked_list.c:45:3
	mov	x9, sp
	str	x11, [x9]
	str	x10, [x9, #8]
	str	x8, [x9, #16]
	adrp	x0, l_.str.4@PAGE
	add	x0, x0, l_.str.4@PAGEOFF
	bl	_printf
	.loc	0 47 1 epilogue_begin           ; src/doubly_linked_list.c:47:1
	ldp	x29, x30, [sp, #48]             ; 16-byte Folded Reload
	add	sp, sp, #64
	ret
Ltmp5:
Lfunc_end2:
	.cfi_endproc
                                        ; -- End function
	.globl	_new_list                       ; -- Begin function new_list
	.p2align	2
_new_list:                              ; @new_list
Lfunc_begin3:
	.loc	0 49 0                          ; src/doubly_linked_list.c:49:0
	.cfi_startproc
; %bb.0:
	sub	sp, sp, #32
	stp	x29, x30, [sp, #16]             ; 16-byte Folded Spill
	add	x29, sp, #16
	.cfi_def_cfa w29, 16
	.cfi_offset w30, -8
	.cfi_offset w29, -16
Ltmp6:
	.loc	0 50 28 prologue_end            ; src/doubly_linked_list.c:50:28
	mov	x0, #16                         ; =0x10
	bl	_malloc
	.loc	0 50 21 is_stmt 0               ; src/doubly_linked_list.c:50:21
	str	x0, [sp, #8]
	.loc	0 51 3 is_stmt 1                ; src/doubly_linked_list.c:51:3
	ldr	x8, [sp, #8]
                                        ; kill: def $x9 killed $xzr
	.loc	0 51 15 is_stmt 0               ; src/doubly_linked_list.c:51:15
	str	xzr, [x8]
	.loc	0 52 3 is_stmt 1                ; src/doubly_linked_list.c:52:3
	ldr	x8, [sp, #8]
	.loc	0 52 14 is_stmt 0               ; src/doubly_linked_list.c:52:14
	str	xzr, [x8, #8]
	.loc	0 53 10 is_stmt 1               ; src/doubly_linked_list.c:53:10
	ldr	x0, [sp, #8]
	.loc	0 53 3 epilogue_begin is_stmt 0 ; src/doubly_linked_list.c:53:3
	ldp	x29, x30, [sp, #16]             ; 16-byte Folded Reload
	add	sp, sp, #32
	ret
Ltmp7:
Lfunc_end3:
	.cfi_endproc
                                        ; -- End function
	.globl	_free_list                      ; -- Begin function free_list
	.p2align	2
_free_list:                             ; @free_list
Lfunc_begin4:
	.loc	0 56 0 is_stmt 1                ; src/doubly_linked_list.c:56:0
	.cfi_startproc
; %bb.0:
	sub	sp, sp, #48
	stp	x29, x30, [sp, #32]             ; 16-byte Folded Spill
	add	x29, sp, #32
	.cfi_def_cfa w29, 16
	.cfi_offset w30, -8
	.cfi_offset w29, -16
	stur	x0, [x29, #-8]
Ltmp8:
	.loc	0 57 19 prologue_end            ; src/doubly_linked_list.c:57:19
	ldur	x8, [x29, #-8]
	.loc	0 57 25 is_stmt 0               ; src/doubly_linked_list.c:57:25
	ldr	x8, [x8]
	.loc	0 57 9                          ; src/doubly_linked_list.c:57:9
	str	x8, [sp, #16]
	.loc	0 58 3 is_stmt 1                ; src/doubly_linked_list.c:58:3
	b	LBB4_1
LBB4_1:                                 ; =>This Inner Loop Header: Depth=1
	.loc	0 58 10 is_stmt 0               ; src/doubly_linked_list.c:58:10
	ldr	x8, [sp, #16]
	.loc	0 58 3                          ; src/doubly_linked_list.c:58:3
	cbz	x8, LBB4_3
	b	LBB4_2
LBB4_2:                                 ;   in Loop: Header=BB4_1 Depth=1
Ltmp9:
	.loc	0 59 18 is_stmt 1               ; src/doubly_linked_list.c:59:18
	ldr	x8, [sp, #16]
	.loc	0 59 27 is_stmt 0               ; src/doubly_linked_list.c:59:27
	ldr	x8, [x8, #16]
	.loc	0 59 11                         ; src/doubly_linked_list.c:59:11
	str	x8, [sp, #8]
	.loc	0 60 15 is_stmt 1               ; src/doubly_linked_list.c:60:15
	ldr	x0, [sp, #16]
	.loc	0 60 5 is_stmt 0                ; src/doubly_linked_list.c:60:5
	bl	_free_node
	.loc	0 61 15 is_stmt 1               ; src/doubly_linked_list.c:61:15
	ldr	x8, [sp, #8]
	.loc	0 61 13 is_stmt 0               ; src/doubly_linked_list.c:61:13
	str	x8, [sp, #16]
Ltmp10:
	.loc	0 58 3 is_stmt 1                ; src/doubly_linked_list.c:58:3
	b	LBB4_1
LBB4_3:
	.loc	0 63 1 epilogue_begin           ; src/doubly_linked_list.c:63:1
	ldp	x29, x30, [sp, #32]             ; 16-byte Folded Reload
	add	sp, sp, #48
	ret
Ltmp11:
Lfunc_end4:
	.cfi_endproc
                                        ; -- End function
	.globl	_print_list                     ; -- Begin function print_list
	.p2align	2
_print_list:                            ; @print_list
Lfunc_begin5:
	.loc	0 65 0                          ; src/doubly_linked_list.c:65:0
	.cfi_startproc
; %bb.0:
	sub	sp, sp, #32
	stp	x29, x30, [sp, #16]             ; 16-byte Folded Spill
	add	x29, sp, #16
	.cfi_def_cfa w29, 16
	.cfi_offset w30, -8
	.cfi_offset w29, -16
	str	x0, [sp, #8]
Ltmp12:
	.loc	0 66 19 prologue_end            ; src/doubly_linked_list.c:66:19
	ldr	x8, [sp, #8]
	.loc	0 66 25 is_stmt 0               ; src/doubly_linked_list.c:66:25
	ldr	x8, [x8]
	.loc	0 66 9                          ; src/doubly_linked_list.c:66:9
	str	x8, [sp]
	.loc	0 67 3 is_stmt 1                ; src/doubly_linked_list.c:67:3
	b	LBB5_1
LBB5_1:                                 ; =>This Inner Loop Header: Depth=1
	.loc	0 67 10 is_stmt 0               ; src/doubly_linked_list.c:67:10
	ldr	x8, [sp]
	.loc	0 67 3                          ; src/doubly_linked_list.c:67:3
	cbz	x8, LBB5_3
	b	LBB5_2
LBB5_2:                                 ;   in Loop: Header=BB5_1 Depth=1
Ltmp13:
	.loc	0 68 16 is_stmt 1               ; src/doubly_linked_list.c:68:16
	ldr	x0, [sp]
	.loc	0 68 5 is_stmt 0                ; src/doubly_linked_list.c:68:5
	bl	_print_node
	.loc	0 69 5 is_stmt 1                ; src/doubly_linked_list.c:69:5
	adrp	x0, l_.str.5@PAGE
	add	x0, x0, l_.str.5@PAGEOFF
	bl	_printf
	.loc	0 70 15                         ; src/doubly_linked_list.c:70:15
	ldr	x8, [sp]
	.loc	0 70 24 is_stmt 0               ; src/doubly_linked_list.c:70:24
	ldr	x8, [x8, #16]
	.loc	0 70 13                         ; src/doubly_linked_list.c:70:13
	str	x8, [sp]
Ltmp14:
	.loc	0 67 3 is_stmt 1                ; src/doubly_linked_list.c:67:3
	b	LBB5_1
LBB5_3:
	.loc	0 72 1 epilogue_begin           ; src/doubly_linked_list.c:72:1
	ldp	x29, x30, [sp, #16]             ; 16-byte Folded Reload
	add	sp, sp, #32
	ret
Ltmp15:
Lfunc_end5:
	.cfi_endproc
                                        ; -- End function
	.globl	_insertBefore                   ; -- Begin function insertBefore
	.p2align	2
_insertBefore:                          ; @insertBefore
Lfunc_begin6:
	.loc	0 74 0                          ; src/doubly_linked_list.c:74:0
	.cfi_startproc
; %bb.0:
	sub	sp, sp, #48
	stp	x29, x30, [sp, #32]             ; 16-byte Folded Spill
	add	x29, sp, #32
	.cfi_def_cfa w29, 16
	.cfi_offset w30, -8
	.cfi_offset w29, -16
	stur	x0, [x29, #-8]
	str	x1, [sp, #16]
	str	x2, [sp, #8]
                                        ; kill: def $x8 killed $xzr
Ltmp16:
	.loc	0 75 9 prologue_end             ; src/doubly_linked_list.c:75:9
	str	xzr, [sp]
Ltmp17:
	.loc	0 76 7                          ; src/doubly_linked_list.c:76:7
	ldr	x8, [sp, #16]
	.loc	0 76 13 is_stmt 0               ; src/doubly_linked_list.c:76:13
	ldr	x8, [x8, #8]
	.loc	0 76 18                         ; src/doubly_linked_list.c:76:18
	cbnz	x8, LBB6_2
	b	LBB6_1
LBB6_1:
Ltmp18:
	.loc	0 77 28 is_stmt 1               ; src/doubly_linked_list.c:77:28
	ldr	x0, [sp, #8]
	.loc	0 77 40 is_stmt 0               ; src/doubly_linked_list.c:77:40
	ldr	x2, [sp, #16]
	.loc	0 77 16                         ; src/doubly_linked_list.c:77:16
	mov	x1, #0                          ; =0x0
	bl	_create_node
	.loc	0 77 14                         ; src/doubly_linked_list.c:77:14
	str	x0, [sp]
	.loc	0 78 19 is_stmt 1               ; src/doubly_linked_list.c:78:19
	ldr	x8, [sp]
	.loc	0 78 5 is_stmt 0                ; src/doubly_linked_list.c:78:5
	ldur	x9, [x29, #-8]
	.loc	0 78 17                         ; src/doubly_linked_list.c:78:17
	str	x8, [x9]
	.loc	0 79 3 is_stmt 1                ; src/doubly_linked_list.c:79:3
	b	LBB6_3
Ltmp19:
LBB6_2:
	.loc	0 80 28                         ; src/doubly_linked_list.c:80:28
	ldr	x0, [sp, #8]
	.loc	0 80 34 is_stmt 0               ; src/doubly_linked_list.c:80:34
	ldr	x8, [sp, #16]
	.loc	0 80 40                         ; src/doubly_linked_list.c:80:40
	ldr	x1, [x8, #8]
	.loc	0 80 46                         ; src/doubly_linked_list.c:80:46
	ldr	x2, [sp, #16]
	.loc	0 80 16                         ; src/doubly_linked_list.c:80:16
	bl	_create_node
	.loc	0 80 14                         ; src/doubly_linked_list.c:80:14
	str	x0, [sp]
	.loc	0 81 24 is_stmt 1               ; src/doubly_linked_list.c:81:24
	ldr	x8, [sp]
	.loc	0 81 5 is_stmt 0                ; src/doubly_linked_list.c:81:5
	ldr	x9, [sp, #16]
	.loc	0 81 11                         ; src/doubly_linked_list.c:81:11
	ldr	x9, [x9, #8]
	.loc	0 81 22                         ; src/doubly_linked_list.c:81:22
	str	x8, [x9, #16]
	b	LBB6_3
Ltmp20:
LBB6_3:
	.loc	0 83 16 is_stmt 1               ; src/doubly_linked_list.c:83:16
	ldr	x8, [sp]
	.loc	0 83 3 is_stmt 0                ; src/doubly_linked_list.c:83:3
	ldr	x9, [sp, #16]
	.loc	0 83 14                         ; src/doubly_linked_list.c:83:14
	str	x8, [x9, #8]
	.loc	0 84 1 epilogue_begin is_stmt 1 ; src/doubly_linked_list.c:84:1
	ldp	x29, x30, [sp, #32]             ; 16-byte Folded Reload
	add	sp, sp, #48
	ret
Ltmp21:
Lfunc_end6:
	.cfi_endproc
                                        ; -- End function
	.globl	_insertAfter                    ; -- Begin function insertAfter
	.p2align	2
_insertAfter:                           ; @insertAfter
Lfunc_begin7:
	.loc	0 86 0                          ; src/doubly_linked_list.c:86:0
	.cfi_startproc
; %bb.0:
	sub	sp, sp, #48
	stp	x29, x30, [sp, #32]             ; 16-byte Folded Spill
	add	x29, sp, #32
	.cfi_def_cfa w29, 16
	.cfi_offset w30, -8
	.cfi_offset w29, -16
	stur	x0, [x29, #-8]
	str	x1, [sp, #16]
	str	x2, [sp, #8]
                                        ; kill: def $x8 killed $xzr
Ltmp22:
	.loc	0 87 9 prologue_end             ; src/doubly_linked_list.c:87:9
	str	xzr, [sp]
Ltmp23:
	.loc	0 88 7                          ; src/doubly_linked_list.c:88:7
	ldr	x8, [sp, #16]
	.loc	0 88 13 is_stmt 0               ; src/doubly_linked_list.c:88:13
	ldr	x8, [x8, #16]
	.loc	0 88 18                         ; src/doubly_linked_list.c:88:18
	cbnz	x8, LBB7_2
	b	LBB7_1
LBB7_1:
Ltmp24:
	.loc	0 89 28 is_stmt 1               ; src/doubly_linked_list.c:89:28
	ldr	x0, [sp, #8]
	.loc	0 89 34 is_stmt 0               ; src/doubly_linked_list.c:89:34
	ldr	x1, [sp, #16]
	.loc	0 89 16                         ; src/doubly_linked_list.c:89:16
	mov	x2, #0                          ; =0x0
	bl	_create_node
	.loc	0 89 14                         ; src/doubly_linked_list.c:89:14
	str	x0, [sp]
	.loc	0 90 18 is_stmt 1               ; src/doubly_linked_list.c:90:18
	ldr	x8, [sp]
	.loc	0 90 5 is_stmt 0                ; src/doubly_linked_list.c:90:5
	ldur	x9, [x29, #-8]
	.loc	0 90 16                         ; src/doubly_linked_list.c:90:16
	str	x8, [x9, #8]
	.loc	0 91 3 is_stmt 1                ; src/doubly_linked_list.c:91:3
	b	LBB7_3
Ltmp25:
LBB7_2:
	.loc	0 92 28                         ; src/doubly_linked_list.c:92:28
	ldr	x0, [sp, #8]
	.loc	0 92 34 is_stmt 0               ; src/doubly_linked_list.c:92:34
	ldr	x1, [sp, #16]
	.loc	0 92 40                         ; src/doubly_linked_list.c:92:40
	ldr	x8, [sp, #16]
	.loc	0 92 46                         ; src/doubly_linked_list.c:92:46
	ldr	x2, [x8, #16]
	.loc	0 92 16                         ; src/doubly_linked_list.c:92:16
	bl	_create_node
	.loc	0 92 14                         ; src/doubly_linked_list.c:92:14
	str	x0, [sp]
	.loc	0 93 24 is_stmt 1               ; src/doubly_linked_list.c:93:24
	ldr	x8, [sp]
	.loc	0 93 5 is_stmt 0                ; src/doubly_linked_list.c:93:5
	ldr	x9, [sp, #16]
	.loc	0 93 11                         ; src/doubly_linked_list.c:93:11
	ldr	x9, [x9, #16]
	.loc	0 93 22                         ; src/doubly_linked_list.c:93:22
	str	x8, [x9, #8]
	b	LBB7_3
Ltmp26:
LBB7_3:
	.loc	0 95 16 is_stmt 1               ; src/doubly_linked_list.c:95:16
	ldr	x8, [sp]
	.loc	0 95 3 is_stmt 0                ; src/doubly_linked_list.c:95:3
	ldr	x9, [sp, #16]
	.loc	0 95 14                         ; src/doubly_linked_list.c:95:14
	str	x8, [x9, #16]
	.loc	0 96 1 epilogue_begin is_stmt 1 ; src/doubly_linked_list.c:96:1
	ldp	x29, x30, [sp, #32]             ; 16-byte Folded Reload
	add	sp, sp, #48
	ret
Ltmp27:
Lfunc_end7:
	.cfi_endproc
                                        ; -- End function
	.globl	_insertBeginning                ; -- Begin function insertBeginning
	.p2align	2
_insertBeginning:                       ; @insertBeginning
Lfunc_begin8:
	.loc	0 98 0                          ; src/doubly_linked_list.c:98:0
	.cfi_startproc
; %bb.0:
	sub	sp, sp, #48
	stp	x29, x30, [sp, #32]             ; 16-byte Folded Spill
	add	x29, sp, #32
	.cfi_def_cfa w29, 16
	.cfi_offset w30, -8
	.cfi_offset w29, -16
	stur	x0, [x29, #-8]
	str	x1, [sp, #16]
                                        ; kill: def $x8 killed $xzr
Ltmp28:
	.loc	0 99 9 prologue_end             ; src/doubly_linked_list.c:99:9
	str	xzr, [sp, #8]
Ltmp29:
	.loc	0 100 7                         ; src/doubly_linked_list.c:100:7
	ldur	x8, [x29, #-8]
	.loc	0 100 13 is_stmt 0              ; src/doubly_linked_list.c:100:13
	ldr	x8, [x8]
	.loc	0 100 19                        ; src/doubly_linked_list.c:100:19
	cbnz	x8, LBB8_2
	b	LBB8_1
LBB8_1:
Ltmp30:
	.loc	0 101 28 is_stmt 1              ; src/doubly_linked_list.c:101:28
	ldr	x0, [sp, #16]
	mov	x2, #0                          ; =0x0
	.loc	0 101 16 is_stmt 0              ; src/doubly_linked_list.c:101:16
	mov	x1, x2
	bl	_create_node
	.loc	0 101 14                        ; src/doubly_linked_list.c:101:14
	str	x0, [sp, #8]
	.loc	0 103 9 is_stmt 1               ; src/doubly_linked_list.c:103:9
	ldr	x8, [sp, #8]
	.loc	0 102 5                         ; src/doubly_linked_list.c:102:5
	ldur	x9, [x29, #-8]
	.loc	0 102 16 is_stmt 0              ; src/doubly_linked_list.c:102:16
	str	x8, [x9, #8]
	.loc	0 105 3 is_stmt 1               ; src/doubly_linked_list.c:105:3
	b	LBB8_3
Ltmp31:
LBB8_2:
	.loc	0 106 28                        ; src/doubly_linked_list.c:106:28
	ldr	x0, [sp, #16]
	.loc	0 106 40 is_stmt 0              ; src/doubly_linked_list.c:106:40
	ldur	x8, [x29, #-8]
	.loc	0 106 46                        ; src/doubly_linked_list.c:106:46
	ldr	x2, [x8]
	.loc	0 106 16                        ; src/doubly_linked_list.c:106:16
	mov	x1, #0                          ; =0x0
	bl	_create_node
	.loc	0 106 14                        ; src/doubly_linked_list.c:106:14
	str	x0, [sp, #8]
	.loc	0 107 25 is_stmt 1              ; src/doubly_linked_list.c:107:25
	ldr	x8, [sp, #8]
	.loc	0 107 5 is_stmt 0               ; src/doubly_linked_list.c:107:5
	ldur	x9, [x29, #-8]
	.loc	0 107 11                        ; src/doubly_linked_list.c:107:11
	ldr	x9, [x9]
	.loc	0 107 23                        ; src/doubly_linked_list.c:107:23
	str	x8, [x9, #8]
	b	LBB8_3
Ltmp32:
LBB8_3:
	.loc	0 109 17 is_stmt 1              ; src/doubly_linked_list.c:109:17
	ldr	x8, [sp, #8]
	.loc	0 109 3 is_stmt 0               ; src/doubly_linked_list.c:109:3
	ldur	x9, [x29, #-8]
	.loc	0 109 15                        ; src/doubly_linked_list.c:109:15
	str	x8, [x9]
	.loc	0 110 1 epilogue_begin is_stmt 1 ; src/doubly_linked_list.c:110:1
	ldp	x29, x30, [sp, #32]             ; 16-byte Folded Reload
	add	sp, sp, #48
	ret
Ltmp33:
Lfunc_end8:
	.cfi_endproc
                                        ; -- End function
	.globl	_insertEnd                      ; -- Begin function insertEnd
	.p2align	2
_insertEnd:                             ; @insertEnd
Lfunc_begin9:
	.loc	0 112 0                         ; src/doubly_linked_list.c:112:0
	.cfi_startproc
; %bb.0:
	sub	sp, sp, #48
	stp	x29, x30, [sp, #32]             ; 16-byte Folded Spill
	add	x29, sp, #32
	.cfi_def_cfa w29, 16
	.cfi_offset w30, -8
	.cfi_offset w29, -16
	stur	x0, [x29, #-8]
	str	x1, [sp, #16]
                                        ; kill: def $x8 killed $xzr
Ltmp34:
	.loc	0 113 9 prologue_end            ; src/doubly_linked_list.c:113:9
	str	xzr, [sp, #8]
Ltmp35:
	.loc	0 114 7                         ; src/doubly_linked_list.c:114:7
	ldur	x8, [x29, #-8]
	.loc	0 114 13 is_stmt 0              ; src/doubly_linked_list.c:114:13
	ldr	x8, [x8, #8]
	.loc	0 114 18                        ; src/doubly_linked_list.c:114:18
	cbnz	x8, LBB9_2
	b	LBB9_1
LBB9_1:
Ltmp36:
	.loc	0 115 28 is_stmt 1              ; src/doubly_linked_list.c:115:28
	ldr	x0, [sp, #16]
	mov	x2, #0                          ; =0x0
	.loc	0 115 16 is_stmt 0              ; src/doubly_linked_list.c:115:16
	mov	x1, x2
	bl	_create_node
	.loc	0 115 14                        ; src/doubly_linked_list.c:115:14
	str	x0, [sp, #8]
	.loc	0 117 9 is_stmt 1               ; src/doubly_linked_list.c:117:9
	ldr	x8, [sp, #8]
	.loc	0 116 5                         ; src/doubly_linked_list.c:116:5
	ldur	x9, [x29, #-8]
	.loc	0 116 17 is_stmt 0              ; src/doubly_linked_list.c:116:17
	str	x8, [x9]
	.loc	0 119 3 is_stmt 1               ; src/doubly_linked_list.c:119:3
	b	LBB9_3
Ltmp37:
LBB9_2:
	.loc	0 120 28                        ; src/doubly_linked_list.c:120:28
	ldr	x0, [sp, #16]
	.loc	0 120 34 is_stmt 0              ; src/doubly_linked_list.c:120:34
	ldur	x8, [x29, #-8]
	.loc	0 120 40                        ; src/doubly_linked_list.c:120:40
	ldr	x1, [x8, #8]
	.loc	0 120 16                        ; src/doubly_linked_list.c:120:16
	mov	x2, #0                          ; =0x0
	bl	_create_node
	.loc	0 120 14                        ; src/doubly_linked_list.c:120:14
	str	x0, [sp, #8]
	.loc	0 121 24 is_stmt 1              ; src/doubly_linked_list.c:121:24
	ldr	x8, [sp, #8]
	.loc	0 121 5 is_stmt 0               ; src/doubly_linked_list.c:121:5
	ldur	x9, [x29, #-8]
	.loc	0 121 11                        ; src/doubly_linked_list.c:121:11
	ldr	x9, [x9, #8]
	.loc	0 121 22                        ; src/doubly_linked_list.c:121:22
	str	x8, [x9, #16]
	b	LBB9_3
Ltmp38:
LBB9_3:
	.loc	0 123 16 is_stmt 1              ; src/doubly_linked_list.c:123:16
	ldr	x8, [sp, #8]
	.loc	0 123 3 is_stmt 0               ; src/doubly_linked_list.c:123:3
	ldur	x9, [x29, #-8]
	.loc	0 123 14                        ; src/doubly_linked_list.c:123:14
	str	x8, [x9, #8]
	.loc	0 124 1 epilogue_begin is_stmt 1 ; src/doubly_linked_list.c:124:1
	ldp	x29, x30, [sp, #32]             ; 16-byte Folded Reload
	add	sp, sp, #48
	ret
Ltmp39:
Lfunc_end9:
	.cfi_endproc
                                        ; -- End function
	.globl	_main                           ; -- Begin function main
	.p2align	2
_main:                                  ; @main
Lfunc_begin10:
	.loc	0 126 0                         ; src/doubly_linked_list.c:126:0
	.cfi_startproc
; %bb.0:
	sub	sp, sp, #48
	stp	x29, x30, [sp, #32]             ; 16-byte Folded Spill
	add	x29, sp, #32
	.cfi_def_cfa w29, 16
	.cfi_offset w30, -8
	.cfi_offset w29, -16
	mov	w8, #0                          ; =0x0
	str	w8, [sp, #12]                   ; 4-byte Folded Spill
	stur	wzr, [x29, #-4]
Ltmp40:
	.loc	0 127 28 prologue_end           ; src/doubly_linked_list.c:127:28
	bl	_new_list
	.loc	0 127 21 is_stmt 0              ; src/doubly_linked_list.c:127:21
	str	x0, [sp, #16]
	.loc	0 128 19 is_stmt 1              ; src/doubly_linked_list.c:128:19
	ldr	x0, [sp, #16]
	.loc	0 128 3 is_stmt 0               ; src/doubly_linked_list.c:128:3
	adrp	x1, l_.str.6@PAGE
	add	x1, x1, l_.str.6@PAGEOFF
	bl	_insertBeginning
	.loc	0 129 15 is_stmt 1              ; src/doubly_linked_list.c:129:15
	ldr	x0, [sp, #16]
	.loc	0 129 21 is_stmt 0              ; src/doubly_linked_list.c:129:21
	ldr	x8, [sp, #16]
	.loc	0 129 27                        ; src/doubly_linked_list.c:129:27
	ldr	x1, [x8]
	.loc	0 129 3                         ; src/doubly_linked_list.c:129:3
	adrp	x2, l_.str.7@PAGE
	add	x2, x2, l_.str.7@PAGEOFF
	bl	_insertAfter
	.loc	0 130 15 is_stmt 1              ; src/doubly_linked_list.c:130:15
	ldr	x0, [sp, #16]
	.loc	0 130 21 is_stmt 0              ; src/doubly_linked_list.c:130:21
	ldr	x8, [sp, #16]
	.loc	0 130 27                        ; src/doubly_linked_list.c:130:27
	ldr	x1, [x8]
	.loc	0 130 3                         ; src/doubly_linked_list.c:130:3
	adrp	x2, l_.str.8@PAGE
	add	x2, x2, l_.str.8@PAGEOFF
	bl	_insertAfter
	.loc	0 131 16 is_stmt 1              ; src/doubly_linked_list.c:131:16
	ldr	x0, [sp, #16]
	.loc	0 131 22 is_stmt 0              ; src/doubly_linked_list.c:131:22
	ldr	x8, [sp, #16]
	.loc	0 131 28                        ; src/doubly_linked_list.c:131:28
	ldr	x1, [x8]
	.loc	0 131 3                         ; src/doubly_linked_list.c:131:3
	adrp	x2, l_.str.9@PAGE
	add	x2, x2, l_.str.9@PAGEOFF
	bl	_insertBefore
	.loc	0 132 13 is_stmt 1              ; src/doubly_linked_list.c:132:13
	ldr	x0, [sp, #16]
	.loc	0 132 3 is_stmt 0               ; src/doubly_linked_list.c:132:3
	adrp	x1, l_.str.10@PAGE
	add	x1, x1, l_.str.10@PAGEOFF
	bl	_insertEnd
	.loc	0 133 14 is_stmt 1              ; src/doubly_linked_list.c:133:14
	ldr	x0, [sp, #16]
	.loc	0 133 3 is_stmt 0               ; src/doubly_linked_list.c:133:3
	bl	_print_list
	.loc	0 134 13 is_stmt 1              ; src/doubly_linked_list.c:134:13
	ldr	x0, [sp, #16]
	.loc	0 134 3 is_stmt 0               ; src/doubly_linked_list.c:134:3
	bl	_free_list
	ldr	w0, [sp, #12]                   ; 4-byte Folded Reload
	.loc	0 135 3 epilogue_begin is_stmt 1 ; src/doubly_linked_list.c:135:3
	ldp	x29, x30, [sp, #32]             ; 16-byte Folded Reload
	add	sp, sp, #48
	ret
Ltmp41:
Lfunc_end10:
	.cfi_endproc
                                        ; -- End function
	.section	__TEXT,__cstring,cstring_literals
l_.str:                                 ; @.str
	.asciz	"[ data: %s, "

l_.str.1:                               ; @.str.1
	.asciz	"prev: %s, "

l_.str.2:                               ; @.str.2
	.asciz	"NULL"

l_.str.3:                               ; @.str.3
	.asciz	"next: %s ]\n"

l_.str.4:                               ; @.str.4
	.asciz	"\t[%p, %p, %p]"

l_.str.5:                               ; @.str.5
	.asciz	"\n"

l_.str.6:                               ; @.str.6
	.asciz	"Node 1"

l_.str.7:                               ; @.str.7
	.asciz	"Node 2"

l_.str.8:                               ; @.str.8
	.asciz	"Node 3"

l_.str.9:                               ; @.str.9
	.asciz	"Node 4"

l_.str.10:                              ; @.str.10
	.asciz	"Node 5"
