	.build_version macos, 26, 0	sdk_version 26, 2
	.file	0 "/Users/kazukishinohara/ghqrepo/github.com/hypatia-tile/single-c" "src/uds_server.c" md5 0x512238b2965b4ed51822913968769adb
	.file	1 "/Library/Developer/CommandLineTools/SDKs/MacOSX.sdk/usr/include/arm" "_types.h" md5 0xb270144f57ae258d0ce80b8f87be068c
	.file	2 "/Library/Developer/CommandLineTools/SDKs/MacOSX.sdk/usr/include/sys" "socket.h" md5 0x81be6427edb2959380e10647d39ff9d1
	.file	3 "/Library/Developer/CommandLineTools/SDKs/MacOSX.sdk/usr/include/sys/_types" "_sa_family_t.h" md5 0x9b81bcc5025065ca07433062cfad51d4
	.section	__TEXT,__text,regular,pure_instructions
	.globl	_die                            ; -- Begin function die
	.p2align	2
_die:                                   ; @die
Lfunc_begin0:
	.loc	0 8 0                           ; src/uds_server.c:8:0
	.cfi_startproc
; %bb.0:
	sub	sp, sp, #32
	stp	x29, x30, [sp, #16]             ; 16-byte Folded Spill
	add	x29, sp, #16
	.cfi_def_cfa w29, 16
	.cfi_offset w30, -8
	.cfi_offset w29, -16
	str	x0, [sp, #8]
Ltmp0:
	.loc	0 9 10 prologue_end             ; src/uds_server.c:9:10
	ldr	x0, [sp, #8]
	.loc	0 9 3 is_stmt 0                 ; src/uds_server.c:9:3
	bl	_perror
	.loc	0 10 3 is_stmt 1                ; src/uds_server.c:10:3
	mov	w0, #1                          ; =0x1
	bl	_exit
Ltmp1:
Lfunc_end0:
	.cfi_endproc
                                        ; -- End function
	.globl	_main                           ; -- Begin function main
	.p2align	2
_main:                                  ; @main
Lfunc_begin1:
	.loc	0 13 0                          ; src/uds_server.c:13:0
	.cfi_startproc
; %bb.0:
	sub	sp, sp, #208
	stp	x29, x30, [sp, #192]            ; 16-byte Folded Spill
	add	x29, sp, #192
	.cfi_def_cfa w29, 16
	.cfi_offset w30, -8
	.cfi_offset w29, -16
	adrp	x8, ___stack_chk_guard@GOTPAGE
	ldr	x8, [x8, ___stack_chk_guard@GOTPAGEOFF]
	ldr	x8, [x8]
	stur	x8, [x29, #-8]
	mov	w8, #0                          ; =0x0
	str	w8, [sp, #12]                   ; 4-byte Folded Spill
	str	wzr, [sp, #56]
Ltmp2:
	.loc	0 14 15 prologue_end            ; src/uds_server.c:14:15
	adrp	x8, l_.str@PAGE
	add	x8, x8, l_.str@PAGEOFF
	str	x8, [sp, #48]
	.loc	0 15 10                         ; src/uds_server.c:15:10
	ldr	x0, [sp, #48]
	.loc	0 15 3 is_stmt 0                ; src/uds_server.c:15:3
	bl	_unlink
	ldr	w2, [sp, #12]                   ; 4-byte Folded Reload
	mov	w1, #1                          ; =0x1
	.loc	0 17 11 is_stmt 1               ; src/uds_server.c:17:11
	mov	x0, x1
	bl	_socket
	ldr	w1, [sp, #12]                   ; 4-byte Folded Reload
	.loc	0 17 7 is_stmt 0                ; src/uds_server.c:17:7
	str	w0, [sp, #44]
	add	x0, sp, #78
	str	x0, [sp, #16]                   ; 8-byte Folded Spill
	.loc	0 18 22 is_stmt 1               ; src/uds_server.c:18:22
	mov	x2, #106                        ; =0x6a
	bl	_memset
	ldr	x8, [sp, #16]                   ; 8-byte Folded Reload
	.loc	0 19 19                         ; src/uds_server.c:19:19
	mov	w9, #1                          ; =0x1
	strb	w9, [sp, #79]
	.loc	0 20 3                          ; src/uds_server.c:20:3
	ldr	x1, [sp, #48]
	add	x0, x8, #2
	mov	x2, #104                        ; =0x68
	bl	___strcpy_chk
	ldr	x1, [sp, #16]                   ; 8-byte Folded Reload
Ltmp3:
	.loc	0 22 12                         ; src/uds_server.c:22:12
	ldr	w0, [sp, #44]
	.loc	0 22 7 is_stmt 0                ; src/uds_server.c:22:7
	mov	w2, #106                        ; =0x6a
	bl	_bind
	.loc	0 22 55                         ; src/uds_server.c:22:55
	tbz	w0, #31, LBB1_2
	b	LBB1_1
LBB1_1:
	.loc	0 23 5 is_stmt 1                ; src/uds_server.c:23:5
	adrp	x0, l_.str.1@PAGE
	add	x0, x0, l_.str.1@PAGEOFF
	bl	_die
	b	LBB1_2
Ltmp4:
LBB1_2:
	.loc	0 25 14                         ; src/uds_server.c:25:14
	ldr	w0, [sp, #44]
	.loc	0 25 7 is_stmt 0                ; src/uds_server.c:25:7
	mov	w1, #1                          ; =0x1
	bl	_listen
	.loc	0 25 20                         ; src/uds_server.c:25:20
	tbz	w0, #31, LBB1_4
	b	LBB1_3
LBB1_3:
	.loc	0 26 5 is_stmt 1                ; src/uds_server.c:26:5
	adrp	x0, l_.str.2@PAGE
	add	x0, x0, l_.str.2@PAGEOFF
	bl	_die
	b	LBB1_4
Ltmp5:
LBB1_4:
	.loc	0 28 18                         ; src/uds_server.c:28:18
	ldr	w0, [sp, #44]
	mov	x2, #0                          ; =0x0
	.loc	0 28 11 is_stmt 0               ; src/uds_server.c:28:11
	mov	x1, x2
	bl	_accept
	.loc	0 28 7                          ; src/uds_server.c:28:7
	str	w0, [sp, #40]
Ltmp6:
	.loc	0 31 7 is_stmt 1                ; src/uds_server.c:31:7
	ldr	w8, [sp, #40]
	.loc	0 31 9 is_stmt 0                ; src/uds_server.c:31:9
	tbz	w8, #31, LBB1_6
	b	LBB1_5
LBB1_5:
	.loc	0 32 5 is_stmt 1                ; src/uds_server.c:32:5
	adrp	x0, l_.str.3@PAGE
	add	x0, x0, l_.str.3@PAGEOFF
	bl	_die
	b	LBB1_6
Ltmp7:
LBB1_6:
	.loc	0 35 20                         ; src/uds_server.c:35:20
	ldr	w0, [sp, #40]
	.loc	0 35 15 is_stmt 0               ; src/uds_server.c:35:15
	add	x1, sp, #62
	mov	x2, #16                         ; =0x10
	bl	_read
	.loc	0 35 11                         ; src/uds_server.c:35:11
	str	x0, [sp, #32]
	.loc	0 37 32 is_stmt 1               ; src/uds_server.c:37:32
	ldr	x8, [sp, #32]
	.loc	0 37 3 is_stmt 0                ; src/uds_server.c:37:3
	mov	x9, sp
	str	x8, [x9]
	adrp	x0, l_.str.4@PAGE
	add	x0, x0, l_.str.4@PAGEOFF
	bl	_printf
Ltmp8:
	.loc	0 38 16 is_stmt 1               ; src/uds_server.c:38:16
	str	xzr, [sp, #24]
	.loc	0 38 8 is_stmt 0                ; src/uds_server.c:38:8
	b	LBB1_7
LBB1_7:                                 ; =>This Inner Loop Header: Depth=1
Ltmp9:
	.loc	0 38 23                         ; src/uds_server.c:38:23
	ldr	x8, [sp, #24]
	.loc	0 38 27                         ; src/uds_server.c:38:27
	ldr	x9, [sp, #32]
Ltmp10:
	.loc	0 38 3                          ; src/uds_server.c:38:3
	subs	x8, x8, x9
	b.ge	LBB1_10
	b	LBB1_8
LBB1_8:                                 ;   in Loop: Header=BB1_7 Depth=1
Ltmp11:
	.loc	0 39 17 is_stmt 1               ; src/uds_server.c:39:17
	ldr	x9, [sp, #24]
	.loc	0 39 13 is_stmt 0               ; src/uds_server.c:39:13
	add	x8, sp, #62
	ldrsb	w0, [x8, x9]
	.loc	0 39 5                          ; src/uds_server.c:39:5
	bl	_putchar
	.loc	0 40 3 is_stmt 1                ; src/uds_server.c:40:3
	b	LBB1_9
Ltmp12:
LBB1_9:                                 ;   in Loop: Header=BB1_7 Depth=1
	.loc	0 38 31                         ; src/uds_server.c:38:31
	ldr	x8, [sp, #24]
	add	x8, x8, #1
	str	x8, [sp, #24]
	.loc	0 38 3 is_stmt 0                ; src/uds_server.c:38:3
	b	LBB1_7
Ltmp13:
LBB1_10:
	.loc	0 41 3 is_stmt 1                ; src/uds_server.c:41:3
	adrp	x0, l_.str.5@PAGE
	add	x0, x0, l_.str.5@PAGEOFF
	bl	_printf
	.loc	0 43 9                          ; src/uds_server.c:43:9
	ldr	w0, [sp, #40]
	.loc	0 43 3 is_stmt 0                ; src/uds_server.c:43:3
	bl	_close
	.loc	0 44 9 is_stmt 1                ; src/uds_server.c:44:9
	ldr	w0, [sp, #44]
	.loc	0 44 3 is_stmt 0                ; src/uds_server.c:44:3
	bl	_close
	.loc	0 45 10 is_stmt 1               ; src/uds_server.c:45:10
	ldr	x0, [sp, #48]
	.loc	0 45 3 is_stmt 0                ; src/uds_server.c:45:3
	bl	_unlink
	.loc	0 46 1 is_stmt 1                ; src/uds_server.c:46:1
	ldr	w8, [sp, #56]
	str	w8, [sp, #8]                    ; 4-byte Folded Spill
	ldur	x9, [x29, #-8]
	adrp	x8, ___stack_chk_guard@GOTPAGE
	ldr	x8, [x8, ___stack_chk_guard@GOTPAGEOFF]
	ldr	x8, [x8]
	subs	x8, x8, x9
	b.eq	LBB1_12
	b	LBB1_11
LBB1_11:
	bl	___stack_chk_fail
LBB1_12:
	.loc	0 0 1 is_stmt 0                 ; src/uds_server.c:0:1
	ldr	w0, [sp, #8]                    ; 4-byte Folded Reload
	.loc	0 46 1 epilogue_begin           ; src/uds_server.c:46:1
	ldp	x29, x30, [sp, #192]            ; 16-byte Folded Reload
	add	sp, sp, #208
	ret
Ltmp14:
Lfunc_end1:
	.cfi_endproc
                                        ; -- End function
	.section	__TEXT,__cstring,cstring_literals
l_.str:                                 ; @.str
	.asciz	"./test.sock"

l_.str.1:                               ; @.str.1
	.asciz	"bind"

l_.str.2:                               ; @.str.2
	.asciz	"listen"

l_.str.3:                               ; @.str.3
	.asciz	"accept"

l_.str.4:                               ; @.str.4
	.asciz	"read %zd bytes: \""

l_.str.5:                               ; @.str.5
	.asciz	"\"\n"

	.file	4 "/Library/Developer/CommandLineTools/SDKs/MacOSX.sdk/usr/include/sys" "un.h" md5 0xa86c5f58839d08ff9d5d1d1024ab62d8
	.file	5 "/Library/Developer/CommandLineTools/SDKs/MacOSX.sdk/usr/include/sys/_types" "_ssize_t.h" md5 0x9b4f5bef81dd94a882775a3ce650ab9c