	.build_version macos, 26, 0	sdk_version 26, 2
	.section	__TEXT,__text,regular,pure_instructions
	.file	0 "/Users/kazukishinohara/ghqrepo/github.com/hypatia-tile/single-c" "src/doubly_linked_list.c" md5 0x2f3ce309ebdb48a9f0c0faa1d5c4b019
	.globl	_fail                           ## -- Begin function fail
	.p2align	4
_fail:                                  ## @fail
Lfunc_begin0:
	.loc	0 5 0                           ## src/doubly_linked_list.c:5:0
	.cfi_startproc
## %bb.0:
	pushq	%rbp
	.cfi_def_cfa_offset 16
	.cfi_offset %rbp, -16
	movq	%rsp, %rbp
	.cfi_def_cfa_register %rbp
	subq	$16, %rsp
	movq	%rdi, -8(%rbp)
Ltmp0:
	.loc	0 6 11 prologue_end             ## src/doubly_linked_list.c:6:11
	movq	___stderrp@GOTPCREL(%rip), %rax
	movq	(%rax), %rdi
	.loc	0 6 27 is_stmt 0                ## src/doubly_linked_list.c:6:27
	movq	-8(%rbp), %rdx
	.loc	0 6 3                           ## src/doubly_linked_list.c:6:3
	leaq	L_.str(%rip), %rsi
	movb	$0, %al
	callq	_fprintf
	.loc	0 7 3 is_stmt 1                 ## src/doubly_linked_list.c:7:3
	movl	$1, %edi
	callq	_exit
Ltmp1:
Lfunc_end0:
	.cfi_endproc
                                        ## -- End function
	.globl	_create_node                    ## -- Begin function create_node
	.p2align	4
_create_node:                           ## @create_node
Lfunc_begin1:
	.loc	0 30 0                          ## src/doubly_linked_list.c:30:0
	.cfi_startproc
## %bb.0:
	pushq	%rbp
	.cfi_def_cfa_offset 16
	.cfi_offset %rbp, -16
	movq	%rsp, %rbp
	.cfi_def_cfa_register %rbp
	subq	$48, %rsp
	movq	%rdi, -8(%rbp)
	movq	%rsi, -16(%rbp)
	movq	%rdx, -24(%rbp)
Ltmp2:
	.loc	0 31 16 prologue_end            ## src/doubly_linked_list.c:31:16
	movl	$24, %edi
	callq	_malloc
	.loc	0 31 9 is_stmt 0                ## src/doubly_linked_list.c:31:9
	movq	%rax, -32(%rbp)
Ltmp3:
	.loc	0 33 8 is_stmt 1                ## src/doubly_linked_list.c:33:8
	cmpq	$0, -32(%rbp)
	.loc	0 33 7 is_stmt 0                ## src/doubly_linked_list.c:33:7
	jne	LBB1_2
## %bb.1:
	.loc	0 34 5 is_stmt 1                ## src/doubly_linked_list.c:34:5
	leaq	L_.str.1(%rip), %rdi
	callq	_fail
Ltmp4:
LBB1_2:
	.loc	0 35 35                         ## src/doubly_linked_list.c:35:35
	movq	-8(%rbp), %rdi
	.loc	0 35 28 is_stmt 0               ## src/doubly_linked_list.c:35:28
	callq	_strlen
	.loc	0 35 17                         ## src/doubly_linked_list.c:35:17
	movq	%rax, -40(%rbp)
	.loc	0 37 39 is_stmt 1               ## src/doubly_linked_list.c:37:39
	movq	-40(%rbp), %rdi
	.loc	0 37 48 is_stmt 0               ## src/doubly_linked_list.c:37:48
	addq	$1, %rdi
	.loc	0 37 36                         ## src/doubly_linked_list.c:37:36
	shlq	$0, %rdi
	.loc	0 37 16                         ## src/doubly_linked_list.c:37:16
	callq	_malloc
	movq	%rax, %rcx
	.loc	0 37 3                          ## src/doubly_linked_list.c:37:3
	movq	-32(%rbp), %rax
	.loc	0 37 14                         ## src/doubly_linked_list.c:37:14
	movq	%rcx, (%rax)
Ltmp5:
	.loc	0 38 7 is_stmt 1                ## src/doubly_linked_list.c:38:7
	movq	-32(%rbp), %rax
	cmpq	$0, (%rax)
	je	LBB1_4
## %bb.3:
	.loc	0 39 5                          ## src/doubly_linked_list.c:39:5
	leaq	L_.str.2(%rip), %rdi
	callq	_fail
Ltmp6:
LBB1_4:
	.loc	0 41 3                          ## src/doubly_linked_list.c:41:3
	movq	-32(%rbp), %rax
	movq	(%rax), %rdi
	movq	-8(%rbp), %rsi
	movq	-40(%rbp), %rdx
	movq	$-1, %rcx
	callq	___strncpy_chk
	.loc	0 42 3                          ## src/doubly_linked_list.c:42:3
	movq	-32(%rbp), %rax
	.loc	0 42 9 is_stmt 0                ## src/doubly_linked_list.c:42:9
	movq	(%rax), %rax
	.loc	0 42 14                         ## src/doubly_linked_list.c:42:14
	movq	-40(%rbp), %rcx
	.loc	0 42 24                         ## src/doubly_linked_list.c:42:24
	movb	$0, (%rax,%rcx)
	.loc	0 43 16 is_stmt 1               ## src/doubly_linked_list.c:43:16
	movq	-16(%rbp), %rcx
	.loc	0 43 3 is_stmt 0                ## src/doubly_linked_list.c:43:3
	movq	-32(%rbp), %rax
	.loc	0 43 14                         ## src/doubly_linked_list.c:43:14
	movq	%rcx, 8(%rax)
	.loc	0 44 16 is_stmt 1               ## src/doubly_linked_list.c:44:16
	movq	-24(%rbp), %rcx
	.loc	0 44 3 is_stmt 0                ## src/doubly_linked_list.c:44:3
	movq	-32(%rbp), %rax
	.loc	0 44 14                         ## src/doubly_linked_list.c:44:14
	movq	%rcx, 16(%rax)
	.loc	0 45 10 is_stmt 1               ## src/doubly_linked_list.c:45:10
	movq	-32(%rbp), %rax
	.loc	0 45 3 epilogue_begin is_stmt 0 ## src/doubly_linked_list.c:45:3
	addq	$48, %rsp
	popq	%rbp
	retq
Ltmp7:
Lfunc_end1:
	.cfi_endproc
                                        ## -- End function
	.globl	_free_node                      ## -- Begin function free_node
	.p2align	4
_free_node:                             ## @free_node
Lfunc_begin2:
	.loc	0 48 0 is_stmt 1                ## src/doubly_linked_list.c:48:0
	.cfi_startproc
## %bb.0:
	pushq	%rbp
	.cfi_def_cfa_offset 16
	.cfi_offset %rbp, -16
	movq	%rsp, %rbp
	.cfi_def_cfa_register %rbp
	subq	$16, %rsp
	movq	%rdi, -8(%rbp)
Ltmp8:
	.loc	0 49 8 prologue_end             ## src/doubly_linked_list.c:49:8
	movq	-8(%rbp), %rax
	.loc	0 49 14 is_stmt 0               ## src/doubly_linked_list.c:49:14
	movq	(%rax), %rdi
	.loc	0 49 3                          ## src/doubly_linked_list.c:49:3
	callq	_free
	.loc	0 50 8 is_stmt 1                ## src/doubly_linked_list.c:50:8
	movq	-8(%rbp), %rdi
	.loc	0 50 3 is_stmt 0                ## src/doubly_linked_list.c:50:3
	callq	_free
	.loc	0 51 1 epilogue_begin is_stmt 1 ## src/doubly_linked_list.c:51:1
	addq	$16, %rsp
	popq	%rbp
	retq
Ltmp9:
Lfunc_end2:
	.cfi_endproc
                                        ## -- End function
	.globl	_print_node                     ## -- Begin function print_node
	.p2align	4
_print_node:                            ## @print_node
Lfunc_begin3:
	.loc	0 53 0                          ## src/doubly_linked_list.c:53:0
	.cfi_startproc
## %bb.0:
	pushq	%rbp
	.cfi_def_cfa_offset 16
	.cfi_offset %rbp, -16
	movq	%rsp, %rbp
	.cfi_def_cfa_register %rbp
	subq	$32, %rsp
	movq	%rdi, -8(%rbp)
Ltmp10:
	.loc	0 54 26 prologue_end            ## src/doubly_linked_list.c:54:26
	movq	-8(%rbp), %rax
	.loc	0 54 32 is_stmt 0               ## src/doubly_linked_list.c:54:32
	movq	(%rax), %rsi
	.loc	0 54 3                          ## src/doubly_linked_list.c:54:3
	leaq	L_.str.3(%rip), %rdi
	movb	$0, %al
	callq	_printf
	.loc	0 55 24 is_stmt 1               ## src/doubly_linked_list.c:55:24
	movq	-8(%rbp), %rax
	cmpq	$0, 8(%rax)
	je	LBB3_2
## %bb.1:
	.loc	0 55 37 is_stmt 0               ## src/doubly_linked_list.c:55:37
	movq	-8(%rbp), %rax
	.loc	0 55 43                         ## src/doubly_linked_list.c:55:43
	movq	8(%rax), %rax
	.loc	0 55 49                         ## src/doubly_linked_list.c:55:49
	movq	(%rax), %rax
	movq	%rax, -16(%rbp)                 ## 8-byte Spill
	.loc	0 55 24                         ## src/doubly_linked_list.c:55:24
	jmp	LBB3_3
LBB3_2:
	leaq	L_.str.5(%rip), %rax
	movq	%rax, -16(%rbp)                 ## 8-byte Spill
	jmp	LBB3_3
LBB3_3:
	.loc	0 0 24                          ## src/doubly_linked_list.c:0:24
	movq	-16(%rbp), %rsi                 ## 8-byte Reload
	.loc	0 55 3                          ## src/doubly_linked_list.c:55:3
	leaq	L_.str.4(%rip), %rdi
	movb	$0, %al
	callq	_printf
	.loc	0 56 26 is_stmt 1               ## src/doubly_linked_list.c:56:26
	movq	-8(%rbp), %rax
	cmpq	$0, 16(%rax)
	je	LBB3_5
## %bb.4:
	.loc	0 56 39 is_stmt 0               ## src/doubly_linked_list.c:56:39
	movq	-8(%rbp), %rax
	.loc	0 56 45                         ## src/doubly_linked_list.c:56:45
	movq	16(%rax), %rax
	.loc	0 56 51                         ## src/doubly_linked_list.c:56:51
	movq	(%rax), %rax
	movq	%rax, -24(%rbp)                 ## 8-byte Spill
	.loc	0 56 26                         ## src/doubly_linked_list.c:56:26
	jmp	LBB3_6
LBB3_5:
	leaq	L_.str.5(%rip), %rax
	movq	%rax, -24(%rbp)                 ## 8-byte Spill
	jmp	LBB3_6
LBB3_6:
	.loc	0 0 26                          ## src/doubly_linked_list.c:0:26
	movq	-24(%rbp), %rsi                 ## 8-byte Reload
	.loc	0 56 3                          ## src/doubly_linked_list.c:56:3
	leaq	L_.str.6(%rip), %rdi
	movb	$0, %al
	callq	_printf
	.loc	0 57 36 is_stmt 1               ## src/doubly_linked_list.c:57:36
	movq	-8(%rbp), %rsi
	.loc	0 57 50 is_stmt 0               ## src/doubly_linked_list.c:57:50
	movq	-8(%rbp), %rax
	.loc	0 57 56                         ## src/doubly_linked_list.c:57:56
	movq	8(%rax), %rdx
	.loc	0 58 18 is_stmt 1               ## src/doubly_linked_list.c:58:18
	movq	-8(%rbp), %rax
	.loc	0 58 24 is_stmt 0               ## src/doubly_linked_list.c:58:24
	movq	16(%rax), %rcx
	.loc	0 57 3 is_stmt 1                ## src/doubly_linked_list.c:57:3
	leaq	L_.str.7(%rip), %rdi
	movb	$0, %al
	callq	_printf
	.loc	0 59 1 epilogue_begin           ## src/doubly_linked_list.c:59:1
	addq	$32, %rsp
	popq	%rbp
	retq
Ltmp11:
Lfunc_end3:
	.cfi_endproc
                                        ## -- End function
	.globl	_new_list                       ## -- Begin function new_list
	.p2align	4
_new_list:                              ## @new_list
Lfunc_begin4:
	.loc	0 61 0                          ## src/doubly_linked_list.c:61:0
	.cfi_startproc
## %bb.0:
	pushq	%rbp
	.cfi_def_cfa_offset 16
	.cfi_offset %rbp, -16
	movq	%rsp, %rbp
	.cfi_def_cfa_register %rbp
	subq	$16, %rsp
Ltmp12:
	.loc	0 62 28 prologue_end            ## src/doubly_linked_list.c:62:28
	movl	$16, %edi
	callq	_malloc
	.loc	0 62 21 is_stmt 0               ## src/doubly_linked_list.c:62:21
	movq	%rax, -8(%rbp)
Ltmp13:
	.loc	0 63 8 is_stmt 1                ## src/doubly_linked_list.c:63:8
	cmpq	$0, -8(%rbp)
	.loc	0 63 7 is_stmt 0                ## src/doubly_linked_list.c:63:7
	jne	LBB4_2
## %bb.1:
	.loc	0 64 5 is_stmt 1                ## src/doubly_linked_list.c:64:5
	leaq	L_.str.8(%rip), %rdi
	callq	_fail
Ltmp14:
LBB4_2:
	.loc	0 66 3                          ## src/doubly_linked_list.c:66:3
	movq	-8(%rbp), %rax
	.loc	0 66 15 is_stmt 0               ## src/doubly_linked_list.c:66:15
	movq	$0, (%rax)
	.loc	0 67 3 is_stmt 1                ## src/doubly_linked_list.c:67:3
	movq	-8(%rbp), %rax
	.loc	0 67 14 is_stmt 0               ## src/doubly_linked_list.c:67:14
	movq	$0, 8(%rax)
	.loc	0 68 10 is_stmt 1               ## src/doubly_linked_list.c:68:10
	movq	-8(%rbp), %rax
	.loc	0 68 3 epilogue_begin is_stmt 0 ## src/doubly_linked_list.c:68:3
	addq	$16, %rsp
	popq	%rbp
	retq
Ltmp15:
Lfunc_end4:
	.cfi_endproc
                                        ## -- End function
	.globl	_free_list                      ## -- Begin function free_list
	.p2align	4
_free_list:                             ## @free_list
Lfunc_begin5:
	.loc	0 71 0 is_stmt 1                ## src/doubly_linked_list.c:71:0
	.cfi_startproc
## %bb.0:
	pushq	%rbp
	.cfi_def_cfa_offset 16
	.cfi_offset %rbp, -16
	movq	%rsp, %rbp
	.cfi_def_cfa_register %rbp
	subq	$32, %rsp
	movq	%rdi, -8(%rbp)
Ltmp16:
	.loc	0 72 19 prologue_end            ## src/doubly_linked_list.c:72:19
	movq	-8(%rbp), %rax
	.loc	0 72 25 is_stmt 0               ## src/doubly_linked_list.c:72:25
	movq	(%rax), %rax
	.loc	0 72 9                          ## src/doubly_linked_list.c:72:9
	movq	%rax, -16(%rbp)
LBB5_1:                                 ## =>This Inner Loop Header: Depth=1
	.loc	0 73 3 is_stmt 1                ## src/doubly_linked_list.c:73:3
	cmpq	$0, -16(%rbp)
	je	LBB5_3
## %bb.2:                               ##   in Loop: Header=BB5_1 Depth=1
Ltmp17:
	.loc	0 74 18                         ## src/doubly_linked_list.c:74:18
	movq	-16(%rbp), %rax
	.loc	0 74 27 is_stmt 0               ## src/doubly_linked_list.c:74:27
	movq	16(%rax), %rax
	.loc	0 74 11                         ## src/doubly_linked_list.c:74:11
	movq	%rax, -24(%rbp)
	.loc	0 75 15 is_stmt 1               ## src/doubly_linked_list.c:75:15
	movq	-16(%rbp), %rdi
	.loc	0 75 5 is_stmt 0                ## src/doubly_linked_list.c:75:5
	callq	_free_node
	.loc	0 76 15 is_stmt 1               ## src/doubly_linked_list.c:76:15
	movq	-24(%rbp), %rax
	.loc	0 76 13 is_stmt 0               ## src/doubly_linked_list.c:76:13
	movq	%rax, -16(%rbp)
Ltmp18:
	.loc	0 73 3 is_stmt 1                ## src/doubly_linked_list.c:73:3
	jmp	LBB5_1
LBB5_3:
	.loc	0 78 1 epilogue_begin           ## src/doubly_linked_list.c:78:1
	addq	$32, %rsp
	popq	%rbp
	retq
Ltmp19:
Lfunc_end5:
	.cfi_endproc
                                        ## -- End function
	.globl	_print_list                     ## -- Begin function print_list
	.p2align	4
_print_list:                            ## @print_list
Lfunc_begin6:
	.loc	0 80 0                          ## src/doubly_linked_list.c:80:0
	.cfi_startproc
## %bb.0:
	pushq	%rbp
	.cfi_def_cfa_offset 16
	.cfi_offset %rbp, -16
	movq	%rsp, %rbp
	.cfi_def_cfa_register %rbp
	subq	$16, %rsp
	movq	%rdi, -8(%rbp)
Ltmp20:
	.loc	0 81 19 prologue_end            ## src/doubly_linked_list.c:81:19
	movq	-8(%rbp), %rax
	.loc	0 81 25 is_stmt 0               ## src/doubly_linked_list.c:81:25
	movq	(%rax), %rax
	.loc	0 81 9                          ## src/doubly_linked_list.c:81:9
	movq	%rax, -16(%rbp)
LBB6_1:                                 ## =>This Inner Loop Header: Depth=1
	.loc	0 82 3 is_stmt 1                ## src/doubly_linked_list.c:82:3
	cmpq	$0, -16(%rbp)
	je	LBB6_3
## %bb.2:                               ##   in Loop: Header=BB6_1 Depth=1
Ltmp21:
	.loc	0 83 16                         ## src/doubly_linked_list.c:83:16
	movq	-16(%rbp), %rdi
	.loc	0 83 5 is_stmt 0                ## src/doubly_linked_list.c:83:5
	callq	_print_node
	.loc	0 84 5 is_stmt 1                ## src/doubly_linked_list.c:84:5
	leaq	L_.str.9(%rip), %rdi
	movb	$0, %al
	callq	_printf
	.loc	0 85 15                         ## src/doubly_linked_list.c:85:15
	movq	-16(%rbp), %rax
	.loc	0 85 24 is_stmt 0               ## src/doubly_linked_list.c:85:24
	movq	16(%rax), %rax
	.loc	0 85 13                         ## src/doubly_linked_list.c:85:13
	movq	%rax, -16(%rbp)
Ltmp22:
	.loc	0 82 3 is_stmt 1                ## src/doubly_linked_list.c:82:3
	jmp	LBB6_1
LBB6_3:
	.loc	0 87 1 epilogue_begin           ## src/doubly_linked_list.c:87:1
	addq	$16, %rsp
	popq	%rbp
	retq
Ltmp23:
Lfunc_end6:
	.cfi_endproc
                                        ## -- End function
	.globl	_insertBefore                   ## -- Begin function insertBefore
	.p2align	4
_insertBefore:                          ## @insertBefore
Lfunc_begin7:
	.loc	0 89 0                          ## src/doubly_linked_list.c:89:0
	.cfi_startproc
## %bb.0:
	pushq	%rbp
	.cfi_def_cfa_offset 16
	.cfi_offset %rbp, -16
	movq	%rsp, %rbp
	.cfi_def_cfa_register %rbp
	subq	$32, %rsp
	movq	%rdi, -8(%rbp)
	movq	%rsi, -16(%rbp)
	movq	%rdx, -24(%rbp)
Ltmp24:
	.loc	0 90 9 prologue_end             ## src/doubly_linked_list.c:90:9
	movq	$0, -32(%rbp)
Ltmp25:
	.loc	0 91 7                          ## src/doubly_linked_list.c:91:7
	movq	-16(%rbp), %rax
	.loc	0 91 18 is_stmt 0               ## src/doubly_linked_list.c:91:18
	cmpq	$0, 8(%rax)
	jne	LBB7_2
## %bb.1:
Ltmp26:
	.loc	0 92 28 is_stmt 1               ## src/doubly_linked_list.c:92:28
	movq	-24(%rbp), %rdi
	.loc	0 92 40 is_stmt 0               ## src/doubly_linked_list.c:92:40
	movq	-16(%rbp), %rdx
	.loc	0 92 16                         ## src/doubly_linked_list.c:92:16
	xorl	%eax, %eax
	movl	%eax, %esi
	callq	_create_node
	.loc	0 92 14                         ## src/doubly_linked_list.c:92:14
	movq	%rax, -32(%rbp)
	.loc	0 93 19 is_stmt 1               ## src/doubly_linked_list.c:93:19
	movq	-32(%rbp), %rcx
	.loc	0 93 5 is_stmt 0                ## src/doubly_linked_list.c:93:5
	movq	-8(%rbp), %rax
	.loc	0 93 17                         ## src/doubly_linked_list.c:93:17
	movq	%rcx, (%rax)
	.loc	0 94 3 is_stmt 1                ## src/doubly_linked_list.c:94:3
	jmp	LBB7_3
Ltmp27:
LBB7_2:
	.loc	0 95 28                         ## src/doubly_linked_list.c:95:28
	movq	-24(%rbp), %rdi
	.loc	0 95 34 is_stmt 0               ## src/doubly_linked_list.c:95:34
	movq	-16(%rbp), %rax
	.loc	0 95 40                         ## src/doubly_linked_list.c:95:40
	movq	8(%rax), %rsi
	.loc	0 95 46                         ## src/doubly_linked_list.c:95:46
	movq	-16(%rbp), %rdx
	.loc	0 95 16                         ## src/doubly_linked_list.c:95:16
	callq	_create_node
	.loc	0 95 14                         ## src/doubly_linked_list.c:95:14
	movq	%rax, -32(%rbp)
	.loc	0 96 24 is_stmt 1               ## src/doubly_linked_list.c:96:24
	movq	-32(%rbp), %rcx
	.loc	0 96 5 is_stmt 0                ## src/doubly_linked_list.c:96:5
	movq	-16(%rbp), %rax
	.loc	0 96 11                         ## src/doubly_linked_list.c:96:11
	movq	8(%rax), %rax
	.loc	0 96 22                         ## src/doubly_linked_list.c:96:22
	movq	%rcx, 16(%rax)
Ltmp28:
LBB7_3:
	.loc	0 98 16 is_stmt 1               ## src/doubly_linked_list.c:98:16
	movq	-32(%rbp), %rcx
	.loc	0 98 3 is_stmt 0                ## src/doubly_linked_list.c:98:3
	movq	-16(%rbp), %rax
	.loc	0 98 14                         ## src/doubly_linked_list.c:98:14
	movq	%rcx, 8(%rax)
	.loc	0 99 1 epilogue_begin is_stmt 1 ## src/doubly_linked_list.c:99:1
	addq	$32, %rsp
	popq	%rbp
	retq
Ltmp29:
Lfunc_end7:
	.cfi_endproc
                                        ## -- End function
	.globl	_insertAfter                    ## -- Begin function insertAfter
	.p2align	4
_insertAfter:                           ## @insertAfter
Lfunc_begin8:
	.loc	0 101 0                         ## src/doubly_linked_list.c:101:0
	.cfi_startproc
## %bb.0:
	pushq	%rbp
	.cfi_def_cfa_offset 16
	.cfi_offset %rbp, -16
	movq	%rsp, %rbp
	.cfi_def_cfa_register %rbp
	subq	$32, %rsp
	movq	%rdi, -8(%rbp)
	movq	%rsi, -16(%rbp)
	movq	%rdx, -24(%rbp)
Ltmp30:
	.loc	0 102 9 prologue_end            ## src/doubly_linked_list.c:102:9
	movq	$0, -32(%rbp)
Ltmp31:
	.loc	0 103 7                         ## src/doubly_linked_list.c:103:7
	movq	-16(%rbp), %rax
	.loc	0 103 18 is_stmt 0              ## src/doubly_linked_list.c:103:18
	cmpq	$0, 16(%rax)
	jne	LBB8_2
## %bb.1:
Ltmp32:
	.loc	0 104 28 is_stmt 1              ## src/doubly_linked_list.c:104:28
	movq	-24(%rbp), %rdi
	.loc	0 104 34 is_stmt 0              ## src/doubly_linked_list.c:104:34
	movq	-16(%rbp), %rsi
	.loc	0 104 16                        ## src/doubly_linked_list.c:104:16
	xorl	%eax, %eax
	movl	%eax, %edx
	callq	_create_node
	.loc	0 104 14                        ## src/doubly_linked_list.c:104:14
	movq	%rax, -32(%rbp)
	.loc	0 105 18 is_stmt 1              ## src/doubly_linked_list.c:105:18
	movq	-32(%rbp), %rcx
	.loc	0 105 5 is_stmt 0               ## src/doubly_linked_list.c:105:5
	movq	-8(%rbp), %rax
	.loc	0 105 16                        ## src/doubly_linked_list.c:105:16
	movq	%rcx, 8(%rax)
	.loc	0 106 3 is_stmt 1               ## src/doubly_linked_list.c:106:3
	jmp	LBB8_3
Ltmp33:
LBB8_2:
	.loc	0 107 28                        ## src/doubly_linked_list.c:107:28
	movq	-24(%rbp), %rdi
	.loc	0 107 34 is_stmt 0              ## src/doubly_linked_list.c:107:34
	movq	-16(%rbp), %rsi
	.loc	0 107 40                        ## src/doubly_linked_list.c:107:40
	movq	-16(%rbp), %rax
	.loc	0 107 46                        ## src/doubly_linked_list.c:107:46
	movq	16(%rax), %rdx
	.loc	0 107 16                        ## src/doubly_linked_list.c:107:16
	callq	_create_node
	.loc	0 107 14                        ## src/doubly_linked_list.c:107:14
	movq	%rax, -32(%rbp)
	.loc	0 108 24 is_stmt 1              ## src/doubly_linked_list.c:108:24
	movq	-32(%rbp), %rcx
	.loc	0 108 5 is_stmt 0               ## src/doubly_linked_list.c:108:5
	movq	-16(%rbp), %rax
	.loc	0 108 11                        ## src/doubly_linked_list.c:108:11
	movq	16(%rax), %rax
	.loc	0 108 22                        ## src/doubly_linked_list.c:108:22
	movq	%rcx, 8(%rax)
Ltmp34:
LBB8_3:
	.loc	0 110 16 is_stmt 1              ## src/doubly_linked_list.c:110:16
	movq	-32(%rbp), %rcx
	.loc	0 110 3 is_stmt 0               ## src/doubly_linked_list.c:110:3
	movq	-16(%rbp), %rax
	.loc	0 110 14                        ## src/doubly_linked_list.c:110:14
	movq	%rcx, 16(%rax)
	.loc	0 111 1 epilogue_begin is_stmt 1 ## src/doubly_linked_list.c:111:1
	addq	$32, %rsp
	popq	%rbp
	retq
Ltmp35:
Lfunc_end8:
	.cfi_endproc
                                        ## -- End function
	.globl	_insertBeginning                ## -- Begin function insertBeginning
	.p2align	4
_insertBeginning:                       ## @insertBeginning
Lfunc_begin9:
	.loc	0 113 0                         ## src/doubly_linked_list.c:113:0
	.cfi_startproc
## %bb.0:
	pushq	%rbp
	.cfi_def_cfa_offset 16
	.cfi_offset %rbp, -16
	movq	%rsp, %rbp
	.cfi_def_cfa_register %rbp
	subq	$32, %rsp
	movq	%rdi, -8(%rbp)
	movq	%rsi, -16(%rbp)
Ltmp36:
	.loc	0 114 9 prologue_end            ## src/doubly_linked_list.c:114:9
	movq	$0, -24(%rbp)
Ltmp37:
	.loc	0 115 7                         ## src/doubly_linked_list.c:115:7
	movq	-8(%rbp), %rax
	.loc	0 115 19 is_stmt 0              ## src/doubly_linked_list.c:115:19
	cmpq	$0, (%rax)
	jne	LBB9_2
## %bb.1:
Ltmp38:
	.loc	0 116 28 is_stmt 1              ## src/doubly_linked_list.c:116:28
	movq	-16(%rbp), %rdi
	.loc	0 116 16 is_stmt 0              ## src/doubly_linked_list.c:116:16
	xorl	%eax, %eax
	movl	%eax, %edx
	movq	%rdx, %rsi
	callq	_create_node
	.loc	0 116 14                        ## src/doubly_linked_list.c:116:14
	movq	%rax, -24(%rbp)
	.loc	0 118 9 is_stmt 1               ## src/doubly_linked_list.c:118:9
	movq	-24(%rbp), %rcx
	.loc	0 117 5                         ## src/doubly_linked_list.c:117:5
	movq	-8(%rbp), %rax
	.loc	0 117 16 is_stmt 0              ## src/doubly_linked_list.c:117:16
	movq	%rcx, 8(%rax)
	.loc	0 120 3 is_stmt 1               ## src/doubly_linked_list.c:120:3
	jmp	LBB9_3
Ltmp39:
LBB9_2:
	.loc	0 121 28                        ## src/doubly_linked_list.c:121:28
	movq	-16(%rbp), %rdi
	.loc	0 121 40 is_stmt 0              ## src/doubly_linked_list.c:121:40
	movq	-8(%rbp), %rax
	.loc	0 121 46                        ## src/doubly_linked_list.c:121:46
	movq	(%rax), %rdx
	.loc	0 121 16                        ## src/doubly_linked_list.c:121:16
	xorl	%eax, %eax
	movl	%eax, %esi
	callq	_create_node
	.loc	0 121 14                        ## src/doubly_linked_list.c:121:14
	movq	%rax, -24(%rbp)
	.loc	0 122 25 is_stmt 1              ## src/doubly_linked_list.c:122:25
	movq	-24(%rbp), %rcx
	.loc	0 122 5 is_stmt 0               ## src/doubly_linked_list.c:122:5
	movq	-8(%rbp), %rax
	.loc	0 122 11                        ## src/doubly_linked_list.c:122:11
	movq	(%rax), %rax
	.loc	0 122 23                        ## src/doubly_linked_list.c:122:23
	movq	%rcx, 8(%rax)
Ltmp40:
LBB9_3:
	.loc	0 124 17 is_stmt 1              ## src/doubly_linked_list.c:124:17
	movq	-24(%rbp), %rcx
	.loc	0 124 3 is_stmt 0               ## src/doubly_linked_list.c:124:3
	movq	-8(%rbp), %rax
	.loc	0 124 15                        ## src/doubly_linked_list.c:124:15
	movq	%rcx, (%rax)
	.loc	0 125 1 epilogue_begin is_stmt 1 ## src/doubly_linked_list.c:125:1
	addq	$32, %rsp
	popq	%rbp
	retq
Ltmp41:
Lfunc_end9:
	.cfi_endproc
                                        ## -- End function
	.globl	_insertEnd                      ## -- Begin function insertEnd
	.p2align	4
_insertEnd:                             ## @insertEnd
Lfunc_begin10:
	.loc	0 127 0                         ## src/doubly_linked_list.c:127:0
	.cfi_startproc
## %bb.0:
	pushq	%rbp
	.cfi_def_cfa_offset 16
	.cfi_offset %rbp, -16
	movq	%rsp, %rbp
	.cfi_def_cfa_register %rbp
	subq	$32, %rsp
	movq	%rdi, -8(%rbp)
	movq	%rsi, -16(%rbp)
Ltmp42:
	.loc	0 128 9 prologue_end            ## src/doubly_linked_list.c:128:9
	movq	$0, -24(%rbp)
Ltmp43:
	.loc	0 129 7                         ## src/doubly_linked_list.c:129:7
	movq	-8(%rbp), %rax
	.loc	0 129 18 is_stmt 0              ## src/doubly_linked_list.c:129:18
	cmpq	$0, 8(%rax)
	jne	LBB10_2
## %bb.1:
Ltmp44:
	.loc	0 130 28 is_stmt 1              ## src/doubly_linked_list.c:130:28
	movq	-16(%rbp), %rdi
	.loc	0 130 16 is_stmt 0              ## src/doubly_linked_list.c:130:16
	xorl	%eax, %eax
	movl	%eax, %edx
	movq	%rdx, %rsi
	callq	_create_node
	.loc	0 130 14                        ## src/doubly_linked_list.c:130:14
	movq	%rax, -24(%rbp)
	.loc	0 132 9 is_stmt 1               ## src/doubly_linked_list.c:132:9
	movq	-24(%rbp), %rcx
	.loc	0 131 5                         ## src/doubly_linked_list.c:131:5
	movq	-8(%rbp), %rax
	.loc	0 131 17 is_stmt 0              ## src/doubly_linked_list.c:131:17
	movq	%rcx, (%rax)
	.loc	0 134 3 is_stmt 1               ## src/doubly_linked_list.c:134:3
	jmp	LBB10_3
Ltmp45:
LBB10_2:
	.loc	0 135 28                        ## src/doubly_linked_list.c:135:28
	movq	-16(%rbp), %rdi
	.loc	0 135 34 is_stmt 0              ## src/doubly_linked_list.c:135:34
	movq	-8(%rbp), %rax
	.loc	0 135 40                        ## src/doubly_linked_list.c:135:40
	movq	8(%rax), %rsi
	.loc	0 135 16                        ## src/doubly_linked_list.c:135:16
	xorl	%eax, %eax
	movl	%eax, %edx
	callq	_create_node
	.loc	0 135 14                        ## src/doubly_linked_list.c:135:14
	movq	%rax, -24(%rbp)
	.loc	0 136 24 is_stmt 1              ## src/doubly_linked_list.c:136:24
	movq	-24(%rbp), %rcx
	.loc	0 136 5 is_stmt 0               ## src/doubly_linked_list.c:136:5
	movq	-8(%rbp), %rax
	.loc	0 136 11                        ## src/doubly_linked_list.c:136:11
	movq	8(%rax), %rax
	.loc	0 136 22                        ## src/doubly_linked_list.c:136:22
	movq	%rcx, 16(%rax)
Ltmp46:
LBB10_3:
	.loc	0 138 16 is_stmt 1              ## src/doubly_linked_list.c:138:16
	movq	-24(%rbp), %rcx
	.loc	0 138 3 is_stmt 0               ## src/doubly_linked_list.c:138:3
	movq	-8(%rbp), %rax
	.loc	0 138 14                        ## src/doubly_linked_list.c:138:14
	movq	%rcx, 8(%rax)
	.loc	0 139 1 epilogue_begin is_stmt 1 ## src/doubly_linked_list.c:139:1
	addq	$32, %rsp
	popq	%rbp
	retq
Ltmp47:
Lfunc_end10:
	.cfi_endproc
                                        ## -- End function
	.globl	_main                           ## -- Begin function main
	.p2align	4
_main:                                  ## @main
Lfunc_begin11:
	.loc	0 141 0                         ## src/doubly_linked_list.c:141:0
	.cfi_startproc
## %bb.0:
	pushq	%rbp
	.cfi_def_cfa_offset 16
	.cfi_offset %rbp, -16
	movq	%rsp, %rbp
	.cfi_def_cfa_register %rbp
	subq	$16, %rsp
	movl	$0, -4(%rbp)
Ltmp48:
	.loc	0 142 28 prologue_end           ## src/doubly_linked_list.c:142:28
	callq	_new_list
	.loc	0 142 21 is_stmt 0              ## src/doubly_linked_list.c:142:21
	movq	%rax, -16(%rbp)
	.loc	0 143 19 is_stmt 1              ## src/doubly_linked_list.c:143:19
	movq	-16(%rbp), %rdi
	.loc	0 143 3 is_stmt 0               ## src/doubly_linked_list.c:143:3
	leaq	L_.str.10(%rip), %rsi
	callq	_insertBeginning
	.loc	0 144 15 is_stmt 1              ## src/doubly_linked_list.c:144:15
	movq	-16(%rbp), %rdi
	.loc	0 144 21 is_stmt 0              ## src/doubly_linked_list.c:144:21
	movq	-16(%rbp), %rax
	.loc	0 144 27                        ## src/doubly_linked_list.c:144:27
	movq	(%rax), %rsi
	.loc	0 144 3                         ## src/doubly_linked_list.c:144:3
	leaq	L_.str.11(%rip), %rdx
	callq	_insertAfter
	.loc	0 145 15 is_stmt 1              ## src/doubly_linked_list.c:145:15
	movq	-16(%rbp), %rdi
	.loc	0 145 21 is_stmt 0              ## src/doubly_linked_list.c:145:21
	movq	-16(%rbp), %rax
	.loc	0 145 27                        ## src/doubly_linked_list.c:145:27
	movq	(%rax), %rsi
	.loc	0 145 3                         ## src/doubly_linked_list.c:145:3
	leaq	L_.str.12(%rip), %rdx
	callq	_insertAfter
	.loc	0 146 16 is_stmt 1              ## src/doubly_linked_list.c:146:16
	movq	-16(%rbp), %rdi
	.loc	0 146 22 is_stmt 0              ## src/doubly_linked_list.c:146:22
	movq	-16(%rbp), %rax
	.loc	0 146 28                        ## src/doubly_linked_list.c:146:28
	movq	(%rax), %rsi
	.loc	0 146 3                         ## src/doubly_linked_list.c:146:3
	leaq	L_.str.13(%rip), %rdx
	callq	_insertBefore
	.loc	0 147 13 is_stmt 1              ## src/doubly_linked_list.c:147:13
	movq	-16(%rbp), %rdi
	.loc	0 147 3 is_stmt 0               ## src/doubly_linked_list.c:147:3
	leaq	L_.str.14(%rip), %rsi
	callq	_insertEnd
	.loc	0 148 14 is_stmt 1              ## src/doubly_linked_list.c:148:14
	movq	-16(%rbp), %rdi
	.loc	0 148 3 is_stmt 0               ## src/doubly_linked_list.c:148:3
	callq	_print_list
	.loc	0 149 13 is_stmt 1              ## src/doubly_linked_list.c:149:13
	movq	-16(%rbp), %rdi
	.loc	0 149 3 is_stmt 0               ## src/doubly_linked_list.c:149:3
	callq	_free_list
	.loc	0 150 3 is_stmt 1               ## src/doubly_linked_list.c:150:3
	xorl	%eax, %eax
	.loc	0 150 3 epilogue_begin is_stmt 0 ## src/doubly_linked_list.c:150:3
	addq	$16, %rsp
	popq	%rbp
	retq
Ltmp49:
Lfunc_end11:
	.cfi_endproc
                                        ## -- End function
	.section	__TEXT,__cstring,cstring_literals
L_.str:                                 ## @.str
	.asciz	"%s\n"

L_.str.1:                               ## @.str.1
	.asciz	"Failed to allocate memory for node."

L_.str.2:                               ## @.str.2
	.asciz	"Failed to allocate memory for data."

L_.str.3:                               ## @.str.3
	.asciz	"[ data: %s, "

L_.str.4:                               ## @.str.4
	.asciz	"prev: %s, "

L_.str.5:                               ## @.str.5
	.asciz	"NULL"

L_.str.6:                               ## @.str.6
	.asciz	"next: %s ]\n"

L_.str.7:                               ## @.str.7
	.asciz	"\t[%p, %p, %p]"

L_.str.8:                               ## @.str.8
	.asciz	"Failed to allocate memory for list."

L_.str.9:                               ## @.str.9
	.asciz	"\n"

L_.str.10:                              ## @.str.10
	.asciz	"Node 1"

L_.str.11:                              ## @.str.11
	.asciz	"Node 2"

L_.str.12:                              ## @.str.12
	.asciz	"Node 3"

L_.str.13:                              ## @.str.13
	.asciz	"Node 4"

L_.str.14:                              ## @.str.14
	.asciz	"Node 5"
