	.build_version macos, 26, 0	sdk_version 26, 2
	.section	__TEXT,__text,regular,pure_instructions
	.file	0 "/Users/kazukishinohara/ghqrepo/github.com/hypatia-tile/single-c" "src/framing.c" md5 0x219a50be4e888387310777710b55c90a
	.file	1 "/Library/Developer/CommandLineTools/SDKs/MacOSX.sdk/usr/include/_types" "_uint8_t.h" md5 0x8b64ccf8c67b8c006b07b8daf1b49be5
	.file	2 "/Library/Developer/CommandLineTools/SDKs/MacOSX.sdk/usr/include/i386" "_types.h" md5 0xeb9e401b3b97107c79f668bcc91916e5
	.file	3 "/Library/Developer/CommandLineTools/SDKs/MacOSX.sdk/usr/include/sys/_types" "_size_t.h" md5 0xf7981334d28e0c246f35cd24042aa2a4
	.globl	_die                            ## -- Begin function die
	.p2align	4
_die:                                   ## @die
Lfunc_begin0:
	.loc	0 9 0                           ## src/framing.c:9:0
	.cfi_startproc
## %bb.0:
	pushq	%rbp
	.cfi_def_cfa_offset 16
	.cfi_offset %rbp, -16
	movq	%rsp, %rbp
	.cfi_def_cfa_register %rbp
	subq	$16, %rsp
	movq	%rdi, -8(%rbp)
Ltmp0:
	.loc	0 10 10 prologue_end            ## src/framing.c:10:10
	movq	-8(%rbp), %rdi
	.loc	0 10 3 is_stmt 0                ## src/framing.c:10:3
	callq	_perror
	.loc	0 11 3 is_stmt 1                ## src/framing.c:11:3
	movl	$1, %edi
	callq	_exit
Ltmp1:
Lfunc_end0:
	.cfi_endproc
                                        ## -- End function
	.globl	_read_full                      ## -- Begin function read_full
	.p2align	4
_read_full:                             ## @read_full
Lfunc_begin1:
	.loc	0 14 0                          ## src/framing.c:14:0
	.cfi_startproc
## %bb.0:
	pushq	%rbp
	.cfi_def_cfa_offset 16
	.cfi_offset %rbp, -16
	movq	%rsp, %rbp
	.cfi_def_cfa_register %rbp
	subq	$48, %rsp
	movl	%edi, -8(%rbp)
	movq	%rsi, -16(%rbp)
	movq	%rdx, -24(%rbp)
Ltmp2:
	.loc	0 15 27 prologue_end            ## src/framing.c:15:27
	movq	-16(%rbp), %rax
	.loc	0 15 12 is_stmt 0               ## src/framing.c:15:12
	movq	%rax, -32(%rbp)
	.loc	0 16 10 is_stmt 1               ## src/framing.c:16:10
	movq	$0, -40(%rbp)
LBB1_1:                                 ## =>This Inner Loop Header: Depth=1
	.loc	0 18 10                         ## src/framing.c:18:10
	movq	-40(%rbp), %rax
	.loc	0 18 14 is_stmt 0               ## src/framing.c:18:14
	cmpq	-24(%rbp), %rax
	.loc	0 18 3                          ## src/framing.c:18:3
	jae	LBB1_9
## %bb.2:                               ##   in Loop: Header=BB1_1 Depth=1
Ltmp3:
	.loc	0 19 22 is_stmt 1               ## src/framing.c:19:22
	movl	-8(%rbp), %edi
	.loc	0 19 26 is_stmt 0               ## src/framing.c:19:26
	movq	-32(%rbp), %rsi
	.loc	0 19 28                         ## src/framing.c:19:28
	addq	-40(%rbp), %rsi
	.loc	0 19 35                         ## src/framing.c:19:35
	movq	-24(%rbp), %rdx
	.loc	0 19 37                         ## src/framing.c:19:37
	subq	-40(%rbp), %rdx
	.loc	0 19 17                         ## src/framing.c:19:17
	callq	_read
	.loc	0 19 13                         ## src/framing.c:19:13
	movq	%rax, -48(%rbp)
Ltmp4:
	.loc	0 20 11 is_stmt 1               ## src/framing.c:20:11
	cmpq	$0, -48(%rbp)
	jne	LBB1_4
## %bb.3:
	.loc	0 21 15                         ## src/framing.c:21:15
	movq	-40(%rbp), %rdx
	.loc	0 21 14 is_stmt 0               ## src/framing.c:21:14
	movl	$4294967295, %eax               ## imm = 0xFFFFFFFF
	xorl	%ecx, %ecx
	.loc	0 21 19                         ## src/framing.c:21:19
	cmpq	$0, %rdx
	.loc	0 21 14                         ## src/framing.c:21:14
	cmovel	%ecx, %eax
	.loc	0 21 7                          ## src/framing.c:21:7
	movl	%eax, -4(%rbp)
	jmp	LBB1_10
Ltmp5:
LBB1_4:                                 ##   in Loop: Header=BB1_1 Depth=1
	.loc	0 23 11 is_stmt 1               ## src/framing.c:23:11
	cmpq	$0, -48(%rbp)
	jge	LBB1_8
## %bb.5:                               ##   in Loop: Header=BB1_1 Depth=1
Ltmp6:
	.loc	0 24 11                         ## src/framing.c:24:11
	callq	___error
	.loc	0 24 17 is_stmt 0               ## src/framing.c:24:17
	cmpl	$4, (%rax)
	jne	LBB1_7
## %bb.6:                               ##   in Loop: Header=BB1_1 Depth=1
	.loc	0 25 9 is_stmt 1                ## src/framing.c:25:9
	jmp	LBB1_1
Ltmp7:
LBB1_7:
	.loc	0 26 7                          ## src/framing.c:26:7
	movl	$-1, -4(%rbp)
	jmp	LBB1_10
Ltmp8:
LBB1_8:                                 ##   in Loop: Header=BB1_1 Depth=1
	.loc	0 28 20                         ## src/framing.c:28:20
	movq	-48(%rbp), %rax
	.loc	0 28 9 is_stmt 0                ## src/framing.c:28:9
	addq	-40(%rbp), %rax
	movq	%rax, -40(%rbp)
Ltmp9:
	.loc	0 18 3 is_stmt 1                ## src/framing.c:18:3
	jmp	LBB1_1
LBB1_9:
	.loc	0 30 3                          ## src/framing.c:30:3
	movl	$1, -4(%rbp)
LBB1_10:
	.loc	0 31 1                          ## src/framing.c:31:1
	movl	-4(%rbp), %eax
	.loc	0 31 1 epilogue_begin is_stmt 0 ## src/framing.c:31:1
	addq	$48, %rsp
	popq	%rbp
	retq
Ltmp10:
Lfunc_end1:
	.cfi_endproc
                                        ## -- End function
	.globl	_main                           ## -- Begin function main
	.p2align	4
_main:                                  ## @main
Lfunc_begin2:
	.loc	0 33 0 is_stmt 1                ## src/framing.c:33:0
	.cfi_startproc
## %bb.0:
	pushq	%rbp
	.cfi_def_cfa_offset 16
	.cfi_offset %rbp, -16
	movq	%rsp, %rbp
	.cfi_def_cfa_register %rbp
	subq	$80, %rsp
	movq	___stack_chk_guard@GOTPCREL(%rip), %rax
	movq	(%rax), %rax
	movq	%rax, -8(%rbp)
	movl	$0, -36(%rbp)
Ltmp11:
	.loc	0 35 12 prologue_end            ## src/framing.c:35:12
	leaq	-16(%rbp), %rdi
	.loc	0 35 7 is_stmt 0                ## src/framing.c:35:7
	callq	_pipe
	.loc	0 35 17                         ## src/framing.c:35:17
	cmpl	$0, %eax
	jge	LBB2_2
## %bb.1:
	.loc	0 36 5 is_stmt 1                ## src/framing.c:36:5
	leaq	L_.str(%rip), %rdi
	callq	_die
Ltmp12:
LBB2_2:
	.loc	0 38 13                         ## src/framing.c:38:13
	callq	_fork
	.loc	0 38 7 is_stmt 0                ## src/framing.c:38:7
	movl	%eax, -40(%rbp)
Ltmp13:
	.loc	0 39 11 is_stmt 1               ## src/framing.c:39:11
	cmpl	$0, -40(%rbp)
	jge	LBB2_4
## %bb.3:
	.loc	0 40 5                          ## src/framing.c:40:5
	leaq	L_.str.1(%rip), %rdi
	callq	_die
Ltmp14:
LBB2_4:
	.loc	0 42 11                         ## src/framing.c:42:11
	cmpl	$0, -40(%rbp)
	jne	LBB2_16
## %bb.5:
Ltmp15:
	.loc	0 43 11                         ## src/framing.c:43:11
	movl	-12(%rbp), %edi
	.loc	0 43 5 is_stmt 0                ## src/framing.c:43:5
	callq	_close
LBB2_6:                                 ## =>This Inner Loop Header: Depth=1
Ltmp16:
	.loc	0 46 26 is_stmt 1               ## src/framing.c:46:26
	movl	-16(%rbp), %edi
	.loc	0 46 34 is_stmt 0               ## src/framing.c:46:34
	leaq	-24(%rbp), %rsi
	.loc	0 46 16                         ## src/framing.c:46:16
	movl	$8, %edx
	callq	_read_full
	.loc	0 46 11                         ## src/framing.c:46:11
	movl	%eax, -44(%rbp)
Ltmp17:
	.loc	0 47 14 is_stmt 1               ## src/framing.c:47:14
	cmpl	$0, -44(%rbp)
	jge	LBB2_10
## %bb.7:                               ##   in Loop: Header=BB2_6 Depth=1
Ltmp18:
	.loc	0 48 13                         ## src/framing.c:48:13
	callq	___error
	.loc	0 48 19 is_stmt 0               ## src/framing.c:48:19
	cmpl	$4, (%rax)
	jne	LBB2_9
## %bb.8:                               ##   in Loop: Header=BB2_6 Depth=1
	.loc	0 49 11 is_stmt 1               ## src/framing.c:49:11
	leaq	L_.str.2(%rip), %rdi
	callq	_die
Ltmp19:
LBB2_9:                                 ##   in Loop: Header=BB2_6 Depth=1
	.loc	0 50 9                          ## src/framing.c:50:9
	jmp	LBB2_6
Ltmp20:
LBB2_10:
	.loc	0 52 7                          ## src/framing.c:52:7
	leaq	L_.str.3(%rip), %rdi
	movl	$8, %esi
	movb	$0, %al
	callq	_printf
Ltmp21:
	.loc	0 53 19                         ## src/framing.c:53:19
	movq	$0, -56(%rbp)
LBB2_11:                                ## =>This Inner Loop Header: Depth=1
Ltmp22:
	.loc	0 53 28 is_stmt 0               ## src/framing.c:53:28
	cmpq	$8, -56(%rbp)
Ltmp23:
	.loc	0 53 7                          ## src/framing.c:53:7
	jae	LBB2_14
## %bb.12:                              ##   in Loop: Header=BB2_11 Depth=1
Ltmp24:
	.loc	0 54 29 is_stmt 1               ## src/framing.c:54:29
	movq	-56(%rbp), %rax
	.loc	0 54 25 is_stmt 0               ## src/framing.c:54:25
	movzbl	-24(%rbp,%rax), %esi
	.loc	0 54 9                          ## src/framing.c:54:9
	leaq	L_.str.4(%rip), %rdi
	movb	$0, %al
	callq	_printf
## %bb.13:                              ##   in Loop: Header=BB2_11 Depth=1
	.loc	0 53 44 is_stmt 1               ## src/framing.c:53:44
	movq	-56(%rbp), %rax
	addq	$1, %rax
	movq	%rax, -56(%rbp)
	.loc	0 53 7 is_stmt 0                ## src/framing.c:53:7
	jmp	LBB2_11
Ltmp25:
LBB2_14:
	.loc	0 55 7 is_stmt 1                ## src/framing.c:55:7
	leaq	L_.str.5(%rip), %rdi
	movb	$0, %al
	callq	_printf
	.loc	0 56 14                         ## src/framing.c:56:14
	movq	___stdoutp@GOTPCREL(%rip), %rax
	movq	(%rax), %rdi
	.loc	0 56 7 is_stmt 0                ## src/framing.c:56:7
	callq	_fflush
	.loc	0 57 13 is_stmt 1               ## src/framing.c:57:13
	movl	-16(%rbp), %edi
	.loc	0 57 7 is_stmt 0                ## src/framing.c:57:7
	callq	_close
	.loc	0 58 7 is_stmt 1                ## src/framing.c:58:7
	movq	___stack_chk_guard@GOTPCREL(%rip), %rax
	movq	(%rax), %rax
	movq	-8(%rbp), %rcx
	cmpq	%rcx, %rax
	jne	LBB2_20
## %bb.15:
	xorl	%edi, %edi
	callq	__exit
Ltmp26:
LBB2_16:
	.loc	0 62 9                          ## src/framing.c:62:9
	movl	-16(%rbp), %edi
	.loc	0 62 3 is_stmt 0                ## src/framing.c:62:3
	callq	_close
	.loc	0 63 11 is_stmt 1               ## src/framing.c:63:11
	movq	L___const.main.message(%rip), %rax
	movq	%rax, -32(%rbp)
	.loc	0 64 21                         ## src/framing.c:64:21
	movl	-12(%rbp), %edi
	.loc	0 64 29 is_stmt 0               ## src/framing.c:64:29
	leaq	-32(%rbp), %rsi
	.loc	0 64 15                         ## src/framing.c:64:15
	movl	$8, %edx
	callq	_write
	.loc	0 64 11                         ## src/framing.c:64:11
	movq	%rax, -64(%rbp)
	.loc	0 65 38 is_stmt 1               ## src/framing.c:65:38
	movq	-64(%rbp), %rsi
	.loc	0 65 3 is_stmt 0                ## src/framing.c:65:3
	leaq	L_.str.6(%rip), %rdi
	movb	$0, %al
	callq	_printf
	.loc	0 66 9 is_stmt 1                ## src/framing.c:66:9
	movl	-12(%rbp), %edi
	.loc	0 66 3 is_stmt 0                ## src/framing.c:66:3
	callq	_close
	.loc	0 67 7 is_stmt 1                ## src/framing.c:67:7
	movl	$0, -68(%rbp)
Ltmp27:
	.loc	0 68 15                         ## src/framing.c:68:15
	movl	-40(%rbp), %edi
	.loc	0 68 7 is_stmt 0                ## src/framing.c:68:7
	leaq	-68(%rbp), %rsi
	xorl	%edx, %edx
	callq	_waitpid
	.loc	0 68 32                         ## src/framing.c:68:32
	cmpl	$0, %eax
	jge	LBB2_18
## %bb.17:
	.loc	0 69 5 is_stmt 1                ## src/framing.c:69:5
	leaq	L_.str.7(%rip), %rdi
	callq	_die
Ltmp28:
LBB2_18:
	.loc	0 70 51                         ## src/framing.c:70:51
	movl	-68(%rbp), %esi
	.loc	0 70 3 is_stmt 0                ## src/framing.c:70:3
	leaq	L_.str.8(%rip), %rdi
	movb	$0, %al
	callq	_printf
	.loc	0 71 3 is_stmt 1                ## src/framing.c:71:3
	movq	___stack_chk_guard@GOTPCREL(%rip), %rax
	movq	(%rax), %rax
	movq	-8(%rbp), %rcx
	cmpq	%rcx, %rax
	jne	LBB2_20
## %bb.19:
	xorl	%eax, %eax
	.loc	0 71 3 epilogue_begin is_stmt 0 ## src/framing.c:71:3
	addq	$80, %rsp
	popq	%rbp
	retq
LBB2_20:
	.loc	0 0 0                           ## src/framing.c:0
	callq	___stack_chk_fail
Ltmp29:
Lfunc_end2:
	.cfi_endproc
                                        ## -- End function
	.section	__TEXT,__cstring,cstring_literals
L_.str:                                 ## @.str
	.asciz	"pipe"

L_.str.1:                               ## @.str.1
	.asciz	"fork"

L_.str.2:                               ## @.str.2
	.asciz	"child read_full"

L_.str.3:                               ## @.str.3
	.asciz	"Child read %zd bytes: "

L_.str.4:                               ## @.str.4
	.asciz	"%02x "

L_.str.5:                               ## @.str.5
	.asciz	"\n"

	.section	__TEXT,__literal8,8byte_literals
L___const.main.message:                 ## @__const.main.message
	.ascii	"\336\255\276\357\312\376\272\276"

	.section	__TEXT,__cstring,cstring_literals
L_.str.6:                               ## @.str.6
	.asciz	"Parent wrote %zd bytes\n"

L_.str.7:                               ## @.str.7
	.asciz	"waitpid"

L_.str.8:                               ## @.str.8
	.asciz	"parent: child exited with status %d\n"

	.file	4 "/Library/Developer/CommandLineTools/SDKs/MacOSX.sdk/usr/include/sys/_types" "_ssize_t.h" md5 0x9b4f5bef81dd94a882775a3ce650ab9c